
bin/kernel_nopage:     file format elf32-i386


Disassembly of section .text:

00100000 <kern_entry>:
.text
.globl kern_entry
kern_entry:
    # reload temperate gdt (second time) to remap all physical memory
    # virtual_addr 0~4G=linear_addr&physical_addr -KERNBASE~4G-KERNBASE 
    lgdt REALLOC(__gdtdesc)
  100000:	0f 01 15 18 70 11 40 	lgdtl  0x40117018
    movl $KERNEL_DS, %eax
  100007:	b8 10 00 00 00       	mov    $0x10,%eax
    movw %ax, %ds
  10000c:	8e d8                	mov    %eax,%ds
    movw %ax, %es
  10000e:	8e c0                	mov    %eax,%es
    movw %ax, %ss
  100010:	8e d0                	mov    %eax,%ss

    ljmp $KERNEL_CS, $relocated
  100012:	ea 19 00 10 00 08 00 	ljmp   $0x8,$0x100019

00100019 <relocated>:

relocated:

    # set ebp, esp
    movl $0x0, %ebp
  100019:	bd 00 00 00 00       	mov    $0x0,%ebp
    # the kernel stack region is from bootstack -- bootstacktop,
    # the kernel stack size is KSTACKSIZE (8KB)defined in memlayout.h
    movl $bootstacktop, %esp
  10001e:	bc 00 70 11 00       	mov    $0x117000,%esp
    # now kernel stack is ready , call the first C function
    call kern_init
  100023:	e8 02 00 00 00       	call   10002a <kern_init>

00100028 <spin>:

# should never get here
spin:
    jmp spin
  100028:	eb fe                	jmp    100028 <spin>

0010002a <kern_init>:
int kern_init(void) __attribute__((noreturn));
void grade_backtrace(void);
static void lab1_switch_test(void);

int
kern_init(void) {
  10002a:	55                   	push   %ebp
  10002b:	89 e5                	mov    %esp,%ebp
  10002d:	83 ec 28             	sub    $0x28,%esp
    extern char edata[], end[];
    memset(edata, 0, end - edata);
  100030:	ba 68 89 11 00       	mov    $0x118968,%edx
  100035:	b8 36 7a 11 00       	mov    $0x117a36,%eax
  10003a:	29 c2                	sub    %eax,%edx
  10003c:	89 d0                	mov    %edx,%eax
  10003e:	89 44 24 08          	mov    %eax,0x8(%esp)
  100042:	c7 44 24 04 00 00 00 	movl   $0x0,0x4(%esp)
  100049:	00 
  10004a:	c7 04 24 36 7a 11 00 	movl   $0x117a36,(%esp)
  100051:	e8 e3 5c 00 00       	call   105d39 <memset>

    cons_init();                // init the console
  100056:	e8 71 15 00 00       	call   1015cc <cons_init>

    const char *message = "(THU.CST) os is loading ...";
  10005b:	c7 45 f4 e0 5e 10 00 	movl   $0x105ee0,-0xc(%ebp)
    cprintf("%s\n\n", message);
  100062:	8b 45 f4             	mov    -0xc(%ebp),%eax
  100065:	89 44 24 04          	mov    %eax,0x4(%esp)
  100069:	c7 04 24 fc 5e 10 00 	movl   $0x105efc,(%esp)
  100070:	e8 c7 02 00 00       	call   10033c <cprintf>

    print_kerninfo();
  100075:	e8 f6 07 00 00       	call   100870 <print_kerninfo>

    grade_backtrace();
  10007a:	e8 86 00 00 00       	call   100105 <grade_backtrace>

    pmm_init();                 // init physical memory management
  10007f:	e8 bc 41 00 00       	call   104240 <pmm_init>

    pic_init();                 // init interrupt controller
  100084:	e8 ac 16 00 00       	call   101735 <pic_init>
    idt_init();                 // init interrupt descriptor table
  100089:	e8 fe 17 00 00       	call   10188c <idt_init>

    clock_init();               // init clock interrupt
  10008e:	e8 ef 0c 00 00       	call   100d82 <clock_init>
    intr_enable();              // enable irq interrupt
  100093:	e8 0b 16 00 00       	call   1016a3 <intr_enable>
    //LAB1: CAHLLENGE 1 If you try to do it, uncomment lab1_switch_test()
    // user/kernel mode switch test
    //lab1_switch_test();

    /* do nothing */
    while (1);
  100098:	eb fe                	jmp    100098 <kern_init+0x6e>

0010009a <grade_backtrace2>:
}

void __attribute__((noinline))
grade_backtrace2(int arg0, int arg1, int arg2, int arg3) {
  10009a:	55                   	push   %ebp
  10009b:	89 e5                	mov    %esp,%ebp
  10009d:	83 ec 18             	sub    $0x18,%esp
    mon_backtrace(0, NULL, NULL);
  1000a0:	c7 44 24 08 00 00 00 	movl   $0x0,0x8(%esp)
  1000a7:	00 
  1000a8:	c7 44 24 04 00 00 00 	movl   $0x0,0x4(%esp)
  1000af:	00 
  1000b0:	c7 04 24 00 00 00 00 	movl   $0x0,(%esp)
  1000b7:	e8 f8 0b 00 00       	call   100cb4 <mon_backtrace>
}
  1000bc:	c9                   	leave  
  1000bd:	c3                   	ret    

001000be <grade_backtrace1>:

void __attribute__((noinline))
grade_backtrace1(int arg0, int arg1) {
  1000be:	55                   	push   %ebp
  1000bf:	89 e5                	mov    %esp,%ebp
  1000c1:	53                   	push   %ebx
  1000c2:	83 ec 14             	sub    $0x14,%esp
    grade_backtrace2(arg0, (int)&arg0, arg1, (int)&arg1);
  1000c5:	8d 5d 0c             	lea    0xc(%ebp),%ebx
  1000c8:	8b 4d 0c             	mov    0xc(%ebp),%ecx
  1000cb:	8d 55 08             	lea    0x8(%ebp),%edx
  1000ce:	8b 45 08             	mov    0x8(%ebp),%eax
  1000d1:	89 5c 24 0c          	mov    %ebx,0xc(%esp)
  1000d5:	89 4c 24 08          	mov    %ecx,0x8(%esp)
  1000d9:	89 54 24 04          	mov    %edx,0x4(%esp)
  1000dd:	89 04 24             	mov    %eax,(%esp)
  1000e0:	e8 b5 ff ff ff       	call   10009a <grade_backtrace2>
}
  1000e5:	83 c4 14             	add    $0x14,%esp
  1000e8:	5b                   	pop    %ebx
  1000e9:	5d                   	pop    %ebp
  1000ea:	c3                   	ret    

001000eb <grade_backtrace0>:

void __attribute__((noinline))
grade_backtrace0(int arg0, int arg1, int arg2) {
  1000eb:	55                   	push   %ebp
  1000ec:	89 e5                	mov    %esp,%ebp
  1000ee:	83 ec 18             	sub    $0x18,%esp
    grade_backtrace1(arg0, arg2);
  1000f1:	8b 45 10             	mov    0x10(%ebp),%eax
  1000f4:	89 44 24 04          	mov    %eax,0x4(%esp)
  1000f8:	8b 45 08             	mov    0x8(%ebp),%eax
  1000fb:	89 04 24             	mov    %eax,(%esp)
  1000fe:	e8 bb ff ff ff       	call   1000be <grade_backtrace1>
}
  100103:	c9                   	leave  
  100104:	c3                   	ret    

00100105 <grade_backtrace>:

void
grade_backtrace(void) {
  100105:	55                   	push   %ebp
  100106:	89 e5                	mov    %esp,%ebp
  100108:	83 ec 18             	sub    $0x18,%esp
    grade_backtrace0(0, (int)kern_init, 0xffff0000);
  10010b:	b8 2a 00 10 00       	mov    $0x10002a,%eax
  100110:	c7 44 24 08 00 00 ff 	movl   $0xffff0000,0x8(%esp)
  100117:	ff 
  100118:	89 44 24 04          	mov    %eax,0x4(%esp)
  10011c:	c7 04 24 00 00 00 00 	movl   $0x0,(%esp)
  100123:	e8 c3 ff ff ff       	call   1000eb <grade_backtrace0>
}
  100128:	c9                   	leave  
  100129:	c3                   	ret    

0010012a <lab1_print_cur_status>:

static void
lab1_print_cur_status(void) {
  10012a:	55                   	push   %ebp
  10012b:	89 e5                	mov    %esp,%ebp
  10012d:	83 ec 28             	sub    $0x28,%esp
    static int round = 0;
    uint16_t reg1, reg2, reg3, reg4;
    asm volatile (
  100130:	8c 4d f6             	mov    %cs,-0xa(%ebp)
  100133:	8c 5d f4             	mov    %ds,-0xc(%ebp)
  100136:	8c 45 f2             	mov    %es,-0xe(%ebp)
  100139:	8c 55 f0             	mov    %ss,-0x10(%ebp)
            "mov %%cs, %0;"
            "mov %%ds, %1;"
            "mov %%es, %2;"
            "mov %%ss, %3;"
            : "=m"(reg1), "=m"(reg2), "=m"(reg3), "=m"(reg4));
    cprintf("%d: @ring %d\n", round, reg1 & 3);
  10013c:	0f b7 45 f6          	movzwl -0xa(%ebp),%eax
  100140:	0f b7 c0             	movzwl %ax,%eax
  100143:	83 e0 03             	and    $0x3,%eax
  100146:	89 c2                	mov    %eax,%edx
  100148:	a1 40 7a 11 00       	mov    0x117a40,%eax
  10014d:	89 54 24 08          	mov    %edx,0x8(%esp)
  100151:	89 44 24 04          	mov    %eax,0x4(%esp)
  100155:	c7 04 24 01 5f 10 00 	movl   $0x105f01,(%esp)
  10015c:	e8 db 01 00 00       	call   10033c <cprintf>
    cprintf("%d:  cs = %x\n", round, reg1);
  100161:	0f b7 45 f6          	movzwl -0xa(%ebp),%eax
  100165:	0f b7 d0             	movzwl %ax,%edx
  100168:	a1 40 7a 11 00       	mov    0x117a40,%eax
  10016d:	89 54 24 08          	mov    %edx,0x8(%esp)
  100171:	89 44 24 04          	mov    %eax,0x4(%esp)
  100175:	c7 04 24 0f 5f 10 00 	movl   $0x105f0f,(%esp)
  10017c:	e8 bb 01 00 00       	call   10033c <cprintf>
    cprintf("%d:  ds = %x\n", round, reg2);
  100181:	0f b7 45 f4          	movzwl -0xc(%ebp),%eax
  100185:	0f b7 d0             	movzwl %ax,%edx
  100188:	a1 40 7a 11 00       	mov    0x117a40,%eax
  10018d:	89 54 24 08          	mov    %edx,0x8(%esp)
  100191:	89 44 24 04          	mov    %eax,0x4(%esp)
  100195:	c7 04 24 1d 5f 10 00 	movl   $0x105f1d,(%esp)
  10019c:	e8 9b 01 00 00       	call   10033c <cprintf>
    cprintf("%d:  es = %x\n", round, reg3);
  1001a1:	0f b7 45 f2          	movzwl -0xe(%ebp),%eax
  1001a5:	0f b7 d0             	movzwl %ax,%edx
  1001a8:	a1 40 7a 11 00       	mov    0x117a40,%eax
  1001ad:	89 54 24 08          	mov    %edx,0x8(%esp)
  1001b1:	89 44 24 04          	mov    %eax,0x4(%esp)
  1001b5:	c7 04 24 2b 5f 10 00 	movl   $0x105f2b,(%esp)
  1001bc:	e8 7b 01 00 00       	call   10033c <cprintf>
    cprintf("%d:  ss = %x\n", round, reg4);
  1001c1:	0f b7 45 f0          	movzwl -0x10(%ebp),%eax
  1001c5:	0f b7 d0             	movzwl %ax,%edx
  1001c8:	a1 40 7a 11 00       	mov    0x117a40,%eax
  1001cd:	89 54 24 08          	mov    %edx,0x8(%esp)
  1001d1:	89 44 24 04          	mov    %eax,0x4(%esp)
  1001d5:	c7 04 24 39 5f 10 00 	movl   $0x105f39,(%esp)
  1001dc:	e8 5b 01 00 00       	call   10033c <cprintf>
    round ++;
  1001e1:	a1 40 7a 11 00       	mov    0x117a40,%eax
  1001e6:	83 c0 01             	add    $0x1,%eax
  1001e9:	a3 40 7a 11 00       	mov    %eax,0x117a40
}
  1001ee:	c9                   	leave  
  1001ef:	c3                   	ret    

001001f0 <lab1_switch_to_user>:

static void
lab1_switch_to_user(void) {
  1001f0:	55                   	push   %ebp
  1001f1:	89 e5                	mov    %esp,%ebp
    //LAB1 CHALLENGE 1 : TODO
}
  1001f3:	5d                   	pop    %ebp
  1001f4:	c3                   	ret    

001001f5 <lab1_switch_to_kernel>:

static void
lab1_switch_to_kernel(void) {
  1001f5:	55                   	push   %ebp
  1001f6:	89 e5                	mov    %esp,%ebp
    //LAB1 CHALLENGE 1 :  TODO
}
  1001f8:	5d                   	pop    %ebp
  1001f9:	c3                   	ret    

001001fa <lab1_switch_test>:

static void
lab1_switch_test(void) {
  1001fa:	55                   	push   %ebp
  1001fb:	89 e5                	mov    %esp,%ebp
  1001fd:	83 ec 18             	sub    $0x18,%esp
    lab1_print_cur_status();
  100200:	e8 25 ff ff ff       	call   10012a <lab1_print_cur_status>
    cprintf("+++ switch to  user  mode +++\n");
  100205:	c7 04 24 48 5f 10 00 	movl   $0x105f48,(%esp)
  10020c:	e8 2b 01 00 00       	call   10033c <cprintf>
    lab1_switch_to_user();
  100211:	e8 da ff ff ff       	call   1001f0 <lab1_switch_to_user>
    lab1_print_cur_status();
  100216:	e8 0f ff ff ff       	call   10012a <lab1_print_cur_status>
    cprintf("+++ switch to kernel mode +++\n");
  10021b:	c7 04 24 68 5f 10 00 	movl   $0x105f68,(%esp)
  100222:	e8 15 01 00 00       	call   10033c <cprintf>
    lab1_switch_to_kernel();
  100227:	e8 c9 ff ff ff       	call   1001f5 <lab1_switch_to_kernel>
    lab1_print_cur_status();
  10022c:	e8 f9 fe ff ff       	call   10012a <lab1_print_cur_status>
}
  100231:	c9                   	leave  
  100232:	c3                   	ret    

00100233 <readline>:
 * The readline() function returns the text of the line read. If some errors
 * are happened, NULL is returned. The return value is a global variable,
 * thus it should be copied before it is used.
 * */
char *
readline(const char *prompt) {
  100233:	55                   	push   %ebp
  100234:	89 e5                	mov    %esp,%ebp
  100236:	83 ec 28             	sub    $0x28,%esp
    if (prompt != NULL) {
  100239:	83 7d 08 00          	cmpl   $0x0,0x8(%ebp)
  10023d:	74 13                	je     100252 <readline+0x1f>
        cprintf("%s", prompt);
  10023f:	8b 45 08             	mov    0x8(%ebp),%eax
  100242:	89 44 24 04          	mov    %eax,0x4(%esp)
  100246:	c7 04 24 87 5f 10 00 	movl   $0x105f87,(%esp)
  10024d:	e8 ea 00 00 00       	call   10033c <cprintf>
    }
    int i = 0, c;
  100252:	c7 45 f4 00 00 00 00 	movl   $0x0,-0xc(%ebp)
    while (1) {
        c = getchar();
  100259:	e8 66 01 00 00       	call   1003c4 <getchar>
  10025e:	89 45 f0             	mov    %eax,-0x10(%ebp)
        if (c < 0) {
  100261:	83 7d f0 00          	cmpl   $0x0,-0x10(%ebp)
  100265:	79 07                	jns    10026e <readline+0x3b>
            return NULL;
  100267:	b8 00 00 00 00       	mov    $0x0,%eax
  10026c:	eb 79                	jmp    1002e7 <readline+0xb4>
        }
        else if (c >= ' ' && i < BUFSIZE - 1) {
  10026e:	83 7d f0 1f          	cmpl   $0x1f,-0x10(%ebp)
  100272:	7e 28                	jle    10029c <readline+0x69>
  100274:	81 7d f4 fe 03 00 00 	cmpl   $0x3fe,-0xc(%ebp)
  10027b:	7f 1f                	jg     10029c <readline+0x69>
            cputchar(c);
  10027d:	8b 45 f0             	mov    -0x10(%ebp),%eax
  100280:	89 04 24             	mov    %eax,(%esp)
  100283:	e8 da 00 00 00       	call   100362 <cputchar>
            buf[i ++] = c;
  100288:	8b 45 f4             	mov    -0xc(%ebp),%eax
  10028b:	8d 50 01             	lea    0x1(%eax),%edx
  10028e:	89 55 f4             	mov    %edx,-0xc(%ebp)
  100291:	8b 55 f0             	mov    -0x10(%ebp),%edx
  100294:	88 90 60 7a 11 00    	mov    %dl,0x117a60(%eax)
  10029a:	eb 46                	jmp    1002e2 <readline+0xaf>
        }
        else if (c == '\b' && i > 0) {
  10029c:	83 7d f0 08          	cmpl   $0x8,-0x10(%ebp)
  1002a0:	75 17                	jne    1002b9 <readline+0x86>
  1002a2:	83 7d f4 00          	cmpl   $0x0,-0xc(%ebp)
  1002a6:	7e 11                	jle    1002b9 <readline+0x86>
            cputchar(c);
  1002a8:	8b 45 f0             	mov    -0x10(%ebp),%eax
  1002ab:	89 04 24             	mov    %eax,(%esp)
  1002ae:	e8 af 00 00 00       	call   100362 <cputchar>
            i --;
  1002b3:	83 6d f4 01          	subl   $0x1,-0xc(%ebp)
  1002b7:	eb 29                	jmp    1002e2 <readline+0xaf>
        }
        else if (c == '\n' || c == '\r') {
  1002b9:	83 7d f0 0a          	cmpl   $0xa,-0x10(%ebp)
  1002bd:	74 06                	je     1002c5 <readline+0x92>
  1002bf:	83 7d f0 0d          	cmpl   $0xd,-0x10(%ebp)
  1002c3:	75 1d                	jne    1002e2 <readline+0xaf>
            cputchar(c);
  1002c5:	8b 45 f0             	mov    -0x10(%ebp),%eax
  1002c8:	89 04 24             	mov    %eax,(%esp)
  1002cb:	e8 92 00 00 00       	call   100362 <cputchar>
            buf[i] = '\0';
  1002d0:	8b 45 f4             	mov    -0xc(%ebp),%eax
  1002d3:	05 60 7a 11 00       	add    $0x117a60,%eax
  1002d8:	c6 00 00             	movb   $0x0,(%eax)
            return buf;
  1002db:	b8 60 7a 11 00       	mov    $0x117a60,%eax
  1002e0:	eb 05                	jmp    1002e7 <readline+0xb4>
        }
    }
  1002e2:	e9 72 ff ff ff       	jmp    100259 <readline+0x26>
}
  1002e7:	c9                   	leave  
  1002e8:	c3                   	ret    

001002e9 <cputch>:
/* *
 * cputch - writes a single character @c to stdout, and it will
 * increace the value of counter pointed by @cnt.
 * */
static void
cputch(int c, int *cnt) {
  1002e9:	55                   	push   %ebp
  1002ea:	89 e5                	mov    %esp,%ebp
  1002ec:	83 ec 18             	sub    $0x18,%esp
    cons_putc(c);
  1002ef:	8b 45 08             	mov    0x8(%ebp),%eax
  1002f2:	89 04 24             	mov    %eax,(%esp)
  1002f5:	e8 fe 12 00 00       	call   1015f8 <cons_putc>
    (*cnt) ++;
  1002fa:	8b 45 0c             	mov    0xc(%ebp),%eax
  1002fd:	8b 00                	mov    (%eax),%eax
  1002ff:	8d 50 01             	lea    0x1(%eax),%edx
  100302:	8b 45 0c             	mov    0xc(%ebp),%eax
  100305:	89 10                	mov    %edx,(%eax)
}
  100307:	c9                   	leave  
  100308:	c3                   	ret    

00100309 <vcprintf>:
 *
 * Call this function if you are already dealing with a va_list.
 * Or you probably want cprintf() instead.
 * */
int
vcprintf(const char *fmt, va_list ap) {
  100309:	55                   	push   %ebp
  10030a:	89 e5                	mov    %esp,%ebp
  10030c:	83 ec 28             	sub    $0x28,%esp
    int cnt = 0;
  10030f:	c7 45 f4 00 00 00 00 	movl   $0x0,-0xc(%ebp)
    vprintfmt((void*)cputch, &cnt, fmt, ap);
  100316:	8b 45 0c             	mov    0xc(%ebp),%eax
  100319:	89 44 24 0c          	mov    %eax,0xc(%esp)
  10031d:	8b 45 08             	mov    0x8(%ebp),%eax
  100320:	89 44 24 08          	mov    %eax,0x8(%esp)
  100324:	8d 45 f4             	lea    -0xc(%ebp),%eax
  100327:	89 44 24 04          	mov    %eax,0x4(%esp)
  10032b:	c7 04 24 e9 02 10 00 	movl   $0x1002e9,(%esp)
  100332:	e8 1b 52 00 00       	call   105552 <vprintfmt>
    return cnt;
  100337:	8b 45 f4             	mov    -0xc(%ebp),%eax
}
  10033a:	c9                   	leave  
  10033b:	c3                   	ret    

0010033c <cprintf>:
 *
 * The return value is the number of characters which would be
 * written to stdout.
 * */
int
cprintf(const char *fmt, ...) {
  10033c:	55                   	push   %ebp
  10033d:	89 e5                	mov    %esp,%ebp
  10033f:	83 ec 28             	sub    $0x28,%esp
    va_list ap;
    int cnt;
    va_start(ap, fmt);
  100342:	8d 45 0c             	lea    0xc(%ebp),%eax
  100345:	89 45 f0             	mov    %eax,-0x10(%ebp)
    cnt = vcprintf(fmt, ap);
  100348:	8b 45 f0             	mov    -0x10(%ebp),%eax
  10034b:	89 44 24 04          	mov    %eax,0x4(%esp)
  10034f:	8b 45 08             	mov    0x8(%ebp),%eax
  100352:	89 04 24             	mov    %eax,(%esp)
  100355:	e8 af ff ff ff       	call   100309 <vcprintf>
  10035a:	89 45 f4             	mov    %eax,-0xc(%ebp)
    va_end(ap);
    return cnt;
  10035d:	8b 45 f4             	mov    -0xc(%ebp),%eax
}
  100360:	c9                   	leave  
  100361:	c3                   	ret    

00100362 <cputchar>:

/* cputchar - writes a single character to stdout */
void
cputchar(int c) {
  100362:	55                   	push   %ebp
  100363:	89 e5                	mov    %esp,%ebp
  100365:	83 ec 18             	sub    $0x18,%esp
    cons_putc(c);
  100368:	8b 45 08             	mov    0x8(%ebp),%eax
  10036b:	89 04 24             	mov    %eax,(%esp)
  10036e:	e8 85 12 00 00       	call   1015f8 <cons_putc>
}
  100373:	c9                   	leave  
  100374:	c3                   	ret    

00100375 <cputs>:
/* *
 * cputs- writes the string pointed by @str to stdout and
 * appends a newline character.
 * */
int
cputs(const char *str) {
  100375:	55                   	push   %ebp
  100376:	89 e5                	mov    %esp,%ebp
  100378:	83 ec 28             	sub    $0x28,%esp
    int cnt = 0;
  10037b:	c7 45 f0 00 00 00 00 	movl   $0x0,-0x10(%ebp)
    char c;
    while ((c = *str ++) != '\0') {
  100382:	eb 13                	jmp    100397 <cputs+0x22>
        cputch(c, &cnt);
  100384:	0f be 45 f7          	movsbl -0x9(%ebp),%eax
  100388:	8d 55 f0             	lea    -0x10(%ebp),%edx
  10038b:	89 54 24 04          	mov    %edx,0x4(%esp)
  10038f:	89 04 24             	mov    %eax,(%esp)
  100392:	e8 52 ff ff ff       	call   1002e9 <cputch>
 * */
int
cputs(const char *str) {
    int cnt = 0;
    char c;
    while ((c = *str ++) != '\0') {
  100397:	8b 45 08             	mov    0x8(%ebp),%eax
  10039a:	8d 50 01             	lea    0x1(%eax),%edx
  10039d:	89 55 08             	mov    %edx,0x8(%ebp)
  1003a0:	0f b6 00             	movzbl (%eax),%eax
  1003a3:	88 45 f7             	mov    %al,-0x9(%ebp)
  1003a6:	80 7d f7 00          	cmpb   $0x0,-0x9(%ebp)
  1003aa:	75 d8                	jne    100384 <cputs+0xf>
        cputch(c, &cnt);
    }
    cputch('\n', &cnt);
  1003ac:	8d 45 f0             	lea    -0x10(%ebp),%eax
  1003af:	89 44 24 04          	mov    %eax,0x4(%esp)
  1003b3:	c7 04 24 0a 00 00 00 	movl   $0xa,(%esp)
  1003ba:	e8 2a ff ff ff       	call   1002e9 <cputch>
    return cnt;
  1003bf:	8b 45 f0             	mov    -0x10(%ebp),%eax
}
  1003c2:	c9                   	leave  
  1003c3:	c3                   	ret    

001003c4 <getchar>:

/* getchar - reads a single non-zero character from stdin */
int
getchar(void) {
  1003c4:	55                   	push   %ebp
  1003c5:	89 e5                	mov    %esp,%ebp
  1003c7:	83 ec 18             	sub    $0x18,%esp
    int c;
    while ((c = cons_getc()) == 0)
  1003ca:	e8 65 12 00 00       	call   101634 <cons_getc>
  1003cf:	89 45 f4             	mov    %eax,-0xc(%ebp)
  1003d2:	83 7d f4 00          	cmpl   $0x0,-0xc(%ebp)
  1003d6:	74 f2                	je     1003ca <getchar+0x6>
        /* do nothing */;
    return c;
  1003d8:	8b 45 f4             	mov    -0xc(%ebp),%eax
}
  1003db:	c9                   	leave  
  1003dc:	c3                   	ret    

001003dd <stab_binsearch>:
 *      stab_binsearch(stabs, &left, &right, N_SO, 0xf0100184);
 * will exit setting left = 118, right = 554.
 * */
static void
stab_binsearch(const struct stab *stabs, int *region_left, int *region_right,
           int type, uintptr_t addr) {
  1003dd:	55                   	push   %ebp
  1003de:	89 e5                	mov    %esp,%ebp
  1003e0:	83 ec 20             	sub    $0x20,%esp
    int l = *region_left, r = *region_right, any_matches = 0;
  1003e3:	8b 45 0c             	mov    0xc(%ebp),%eax
  1003e6:	8b 00                	mov    (%eax),%eax
  1003e8:	89 45 fc             	mov    %eax,-0x4(%ebp)
  1003eb:	8b 45 10             	mov    0x10(%ebp),%eax
  1003ee:	8b 00                	mov    (%eax),%eax
  1003f0:	89 45 f8             	mov    %eax,-0x8(%ebp)
  1003f3:	c7 45 f4 00 00 00 00 	movl   $0x0,-0xc(%ebp)

    while (l <= r) {
  1003fa:	e9 d2 00 00 00       	jmp    1004d1 <stab_binsearch+0xf4>
        int true_m = (l + r) / 2, m = true_m;
  1003ff:	8b 45 f8             	mov    -0x8(%ebp),%eax
  100402:	8b 55 fc             	mov    -0x4(%ebp),%edx
  100405:	01 d0                	add    %edx,%eax
  100407:	89 c2                	mov    %eax,%edx
  100409:	c1 ea 1f             	shr    $0x1f,%edx
  10040c:	01 d0                	add    %edx,%eax
  10040e:	d1 f8                	sar    %eax
  100410:	89 45 ec             	mov    %eax,-0x14(%ebp)
  100413:	8b 45 ec             	mov    -0x14(%ebp),%eax
  100416:	89 45 f0             	mov    %eax,-0x10(%ebp)

        // search for earliest stab with right type
        while (m >= l && stabs[m].n_type != type) {
  100419:	eb 04                	jmp    10041f <stab_binsearch+0x42>
            m --;
  10041b:	83 6d f0 01          	subl   $0x1,-0x10(%ebp)

    while (l <= r) {
        int true_m = (l + r) / 2, m = true_m;

        // search for earliest stab with right type
        while (m >= l && stabs[m].n_type != type) {
  10041f:	8b 45 f0             	mov    -0x10(%ebp),%eax
  100422:	3b 45 fc             	cmp    -0x4(%ebp),%eax
  100425:	7c 1f                	jl     100446 <stab_binsearch+0x69>
  100427:	8b 55 f0             	mov    -0x10(%ebp),%edx
  10042a:	89 d0                	mov    %edx,%eax
  10042c:	01 c0                	add    %eax,%eax
  10042e:	01 d0                	add    %edx,%eax
  100430:	c1 e0 02             	shl    $0x2,%eax
  100433:	89 c2                	mov    %eax,%edx
  100435:	8b 45 08             	mov    0x8(%ebp),%eax
  100438:	01 d0                	add    %edx,%eax
  10043a:	0f b6 40 04          	movzbl 0x4(%eax),%eax
  10043e:	0f b6 c0             	movzbl %al,%eax
  100441:	3b 45 14             	cmp    0x14(%ebp),%eax
  100444:	75 d5                	jne    10041b <stab_binsearch+0x3e>
            m --;
        }
        if (m < l) {    // no match in [l, m]
  100446:	8b 45 f0             	mov    -0x10(%ebp),%eax
  100449:	3b 45 fc             	cmp    -0x4(%ebp),%eax
  10044c:	7d 0b                	jge    100459 <stab_binsearch+0x7c>
            l = true_m + 1;
  10044e:	8b 45 ec             	mov    -0x14(%ebp),%eax
  100451:	83 c0 01             	add    $0x1,%eax
  100454:	89 45 fc             	mov    %eax,-0x4(%ebp)
            continue;
  100457:	eb 78                	jmp    1004d1 <stab_binsearch+0xf4>
        }

        // actual binary search
        any_matches = 1;
  100459:	c7 45 f4 01 00 00 00 	movl   $0x1,-0xc(%ebp)
        if (stabs[m].n_value < addr) {
  100460:	8b 55 f0             	mov    -0x10(%ebp),%edx
  100463:	89 d0                	mov    %edx,%eax
  100465:	01 c0                	add    %eax,%eax
  100467:	01 d0                	add    %edx,%eax
  100469:	c1 e0 02             	shl    $0x2,%eax
  10046c:	89 c2                	mov    %eax,%edx
  10046e:	8b 45 08             	mov    0x8(%ebp),%eax
  100471:	01 d0                	add    %edx,%eax
  100473:	8b 40 08             	mov    0x8(%eax),%eax
  100476:	3b 45 18             	cmp    0x18(%ebp),%eax
  100479:	73 13                	jae    10048e <stab_binsearch+0xb1>
            *region_left = m;
  10047b:	8b 45 0c             	mov    0xc(%ebp),%eax
  10047e:	8b 55 f0             	mov    -0x10(%ebp),%edx
  100481:	89 10                	mov    %edx,(%eax)
            l = true_m + 1;
  100483:	8b 45 ec             	mov    -0x14(%ebp),%eax
  100486:	83 c0 01             	add    $0x1,%eax
  100489:	89 45 fc             	mov    %eax,-0x4(%ebp)
  10048c:	eb 43                	jmp    1004d1 <stab_binsearch+0xf4>
        } else if (stabs[m].n_value > addr) {
  10048e:	8b 55 f0             	mov    -0x10(%ebp),%edx
  100491:	89 d0                	mov    %edx,%eax
  100493:	01 c0                	add    %eax,%eax
  100495:	01 d0                	add    %edx,%eax
  100497:	c1 e0 02             	shl    $0x2,%eax
  10049a:	89 c2                	mov    %eax,%edx
  10049c:	8b 45 08             	mov    0x8(%ebp),%eax
  10049f:	01 d0                	add    %edx,%eax
  1004a1:	8b 40 08             	mov    0x8(%eax),%eax
  1004a4:	3b 45 18             	cmp    0x18(%ebp),%eax
  1004a7:	76 16                	jbe    1004bf <stab_binsearch+0xe2>
            *region_right = m - 1;
  1004a9:	8b 45 f0             	mov    -0x10(%ebp),%eax
  1004ac:	8d 50 ff             	lea    -0x1(%eax),%edx
  1004af:	8b 45 10             	mov    0x10(%ebp),%eax
  1004b2:	89 10                	mov    %edx,(%eax)
            r = m - 1;
  1004b4:	8b 45 f0             	mov    -0x10(%ebp),%eax
  1004b7:	83 e8 01             	sub    $0x1,%eax
  1004ba:	89 45 f8             	mov    %eax,-0x8(%ebp)
  1004bd:	eb 12                	jmp    1004d1 <stab_binsearch+0xf4>
        } else {
            // exact match for 'addr', but continue loop to find
            // *region_right
            *region_left = m;
  1004bf:	8b 45 0c             	mov    0xc(%ebp),%eax
  1004c2:	8b 55 f0             	mov    -0x10(%ebp),%edx
  1004c5:	89 10                	mov    %edx,(%eax)
            l = m;
  1004c7:	8b 45 f0             	mov    -0x10(%ebp),%eax
  1004ca:	89 45 fc             	mov    %eax,-0x4(%ebp)
            addr ++;
  1004cd:	83 45 18 01          	addl   $0x1,0x18(%ebp)
static void
stab_binsearch(const struct stab *stabs, int *region_left, int *region_right,
           int type, uintptr_t addr) {
    int l = *region_left, r = *region_right, any_matches = 0;

    while (l <= r) {
  1004d1:	8b 45 fc             	mov    -0x4(%ebp),%eax
  1004d4:	3b 45 f8             	cmp    -0x8(%ebp),%eax
  1004d7:	0f 8e 22 ff ff ff    	jle    1003ff <stab_binsearch+0x22>
            l = m;
            addr ++;
        }
    }

    if (!any_matches) {
  1004dd:	83 7d f4 00          	cmpl   $0x0,-0xc(%ebp)
  1004e1:	75 0f                	jne    1004f2 <stab_binsearch+0x115>
        *region_right = *region_left - 1;
  1004e3:	8b 45 0c             	mov    0xc(%ebp),%eax
  1004e6:	8b 00                	mov    (%eax),%eax
  1004e8:	8d 50 ff             	lea    -0x1(%eax),%edx
  1004eb:	8b 45 10             	mov    0x10(%ebp),%eax
  1004ee:	89 10                	mov    %edx,(%eax)
  1004f0:	eb 3f                	jmp    100531 <stab_binsearch+0x154>
    }
    else {
        // find rightmost region containing 'addr'
        l = *region_right;
  1004f2:	8b 45 10             	mov    0x10(%ebp),%eax
  1004f5:	8b 00                	mov    (%eax),%eax
  1004f7:	89 45 fc             	mov    %eax,-0x4(%ebp)
        for (; l > *region_left && stabs[l].n_type != type; l --)
  1004fa:	eb 04                	jmp    100500 <stab_binsearch+0x123>
  1004fc:	83 6d fc 01          	subl   $0x1,-0x4(%ebp)
  100500:	8b 45 0c             	mov    0xc(%ebp),%eax
  100503:	8b 00                	mov    (%eax),%eax
  100505:	3b 45 fc             	cmp    -0x4(%ebp),%eax
  100508:	7d 1f                	jge    100529 <stab_binsearch+0x14c>
  10050a:	8b 55 fc             	mov    -0x4(%ebp),%edx
  10050d:	89 d0                	mov    %edx,%eax
  10050f:	01 c0                	add    %eax,%eax
  100511:	01 d0                	add    %edx,%eax
  100513:	c1 e0 02             	shl    $0x2,%eax
  100516:	89 c2                	mov    %eax,%edx
  100518:	8b 45 08             	mov    0x8(%ebp),%eax
  10051b:	01 d0                	add    %edx,%eax
  10051d:	0f b6 40 04          	movzbl 0x4(%eax),%eax
  100521:	0f b6 c0             	movzbl %al,%eax
  100524:	3b 45 14             	cmp    0x14(%ebp),%eax
  100527:	75 d3                	jne    1004fc <stab_binsearch+0x11f>
            /* do nothing */;
        *region_left = l;
  100529:	8b 45 0c             	mov    0xc(%ebp),%eax
  10052c:	8b 55 fc             	mov    -0x4(%ebp),%edx
  10052f:	89 10                	mov    %edx,(%eax)
    }
}
  100531:	c9                   	leave  
  100532:	c3                   	ret    

00100533 <debuginfo_eip>:
 * the specified instruction address, @addr.  Returns 0 if information
 * was found, and negative if not.  But even if it returns negative it
 * has stored some information into '*info'.
 * */
int
debuginfo_eip(uintptr_t addr, struct eipdebuginfo *info) {
  100533:	55                   	push   %ebp
  100534:	89 e5                	mov    %esp,%ebp
  100536:	83 ec 58             	sub    $0x58,%esp
    const struct stab *stabs, *stab_end;
    const char *stabstr, *stabstr_end;

    info->eip_file = "<unknown>";
  100539:	8b 45 0c             	mov    0xc(%ebp),%eax
  10053c:	c7 00 8c 5f 10 00    	movl   $0x105f8c,(%eax)
    info->eip_line = 0;
  100542:	8b 45 0c             	mov    0xc(%ebp),%eax
  100545:	c7 40 04 00 00 00 00 	movl   $0x0,0x4(%eax)
    info->eip_fn_name = "<unknown>";
  10054c:	8b 45 0c             	mov    0xc(%ebp),%eax
  10054f:	c7 40 08 8c 5f 10 00 	movl   $0x105f8c,0x8(%eax)
    info->eip_fn_namelen = 9;
  100556:	8b 45 0c             	mov    0xc(%ebp),%eax
  100559:	c7 40 0c 09 00 00 00 	movl   $0x9,0xc(%eax)
    info->eip_fn_addr = addr;
  100560:	8b 45 0c             	mov    0xc(%ebp),%eax
  100563:	8b 55 08             	mov    0x8(%ebp),%edx
  100566:	89 50 10             	mov    %edx,0x10(%eax)
    info->eip_fn_narg = 0;
  100569:	8b 45 0c             	mov    0xc(%ebp),%eax
  10056c:	c7 40 14 00 00 00 00 	movl   $0x0,0x14(%eax)

    stabs = __STAB_BEGIN__;
  100573:	c7 45 f4 b8 71 10 00 	movl   $0x1071b8,-0xc(%ebp)
    stab_end = __STAB_END__;
  10057a:	c7 45 f0 e8 1c 11 00 	movl   $0x111ce8,-0x10(%ebp)
    stabstr = __STABSTR_BEGIN__;
  100581:	c7 45 ec e9 1c 11 00 	movl   $0x111ce9,-0x14(%ebp)
    stabstr_end = __STABSTR_END__;
  100588:	c7 45 e8 40 47 11 00 	movl   $0x114740,-0x18(%ebp)

    // String table validity checks
    if (stabstr_end <= stabstr || stabstr_end[-1] != 0) {
  10058f:	8b 45 e8             	mov    -0x18(%ebp),%eax
  100592:	3b 45 ec             	cmp    -0x14(%ebp),%eax
  100595:	76 0d                	jbe    1005a4 <debuginfo_eip+0x71>
  100597:	8b 45 e8             	mov    -0x18(%ebp),%eax
  10059a:	83 e8 01             	sub    $0x1,%eax
  10059d:	0f b6 00             	movzbl (%eax),%eax
  1005a0:	84 c0                	test   %al,%al
  1005a2:	74 0a                	je     1005ae <debuginfo_eip+0x7b>
        return -1;
  1005a4:	b8 ff ff ff ff       	mov    $0xffffffff,%eax
  1005a9:	e9 c0 02 00 00       	jmp    10086e <debuginfo_eip+0x33b>
    // 'eip'.  First, we find the basic source file containing 'eip'.
    // Then, we look in that source file for the function.  Then we look
    // for the line number.

    // Search the entire set of stabs for the source file (type N_SO).
    int lfile = 0, rfile = (stab_end - stabs) - 1;
  1005ae:	c7 45 e4 00 00 00 00 	movl   $0x0,-0x1c(%ebp)
  1005b5:	8b 55 f0             	mov    -0x10(%ebp),%edx
  1005b8:	8b 45 f4             	mov    -0xc(%ebp),%eax
  1005bb:	29 c2                	sub    %eax,%edx
  1005bd:	89 d0                	mov    %edx,%eax
  1005bf:	c1 f8 02             	sar    $0x2,%eax
  1005c2:	69 c0 ab aa aa aa    	imul   $0xaaaaaaab,%eax,%eax
  1005c8:	83 e8 01             	sub    $0x1,%eax
  1005cb:	89 45 e0             	mov    %eax,-0x20(%ebp)
    stab_binsearch(stabs, &lfile, &rfile, N_SO, addr);
  1005ce:	8b 45 08             	mov    0x8(%ebp),%eax
  1005d1:	89 44 24 10          	mov    %eax,0x10(%esp)
  1005d5:	c7 44 24 0c 64 00 00 	movl   $0x64,0xc(%esp)
  1005dc:	00 
  1005dd:	8d 45 e0             	lea    -0x20(%ebp),%eax
  1005e0:	89 44 24 08          	mov    %eax,0x8(%esp)
  1005e4:	8d 45 e4             	lea    -0x1c(%ebp),%eax
  1005e7:	89 44 24 04          	mov    %eax,0x4(%esp)
  1005eb:	8b 45 f4             	mov    -0xc(%ebp),%eax
  1005ee:	89 04 24             	mov    %eax,(%esp)
  1005f1:	e8 e7 fd ff ff       	call   1003dd <stab_binsearch>
    if (lfile == 0)
  1005f6:	8b 45 e4             	mov    -0x1c(%ebp),%eax
  1005f9:	85 c0                	test   %eax,%eax
  1005fb:	75 0a                	jne    100607 <debuginfo_eip+0xd4>
        return -1;
  1005fd:	b8 ff ff ff ff       	mov    $0xffffffff,%eax
  100602:	e9 67 02 00 00       	jmp    10086e <debuginfo_eip+0x33b>

    // Search within that file's stabs for the function definition
    // (N_FUN).
    int lfun = lfile, rfun = rfile;
  100607:	8b 45 e4             	mov    -0x1c(%ebp),%eax
  10060a:	89 45 dc             	mov    %eax,-0x24(%ebp)
  10060d:	8b 45 e0             	mov    -0x20(%ebp),%eax
  100610:	89 45 d8             	mov    %eax,-0x28(%ebp)
    int lline, rline;
    stab_binsearch(stabs, &lfun, &rfun, N_FUN, addr);
  100613:	8b 45 08             	mov    0x8(%ebp),%eax
  100616:	89 44 24 10          	mov    %eax,0x10(%esp)
  10061a:	c7 44 24 0c 24 00 00 	movl   $0x24,0xc(%esp)
  100621:	00 
  100622:	8d 45 d8             	lea    -0x28(%ebp),%eax
  100625:	89 44 24 08          	mov    %eax,0x8(%esp)
  100629:	8d 45 dc             	lea    -0x24(%ebp),%eax
  10062c:	89 44 24 04          	mov    %eax,0x4(%esp)
  100630:	8b 45 f4             	mov    -0xc(%ebp),%eax
  100633:	89 04 24             	mov    %eax,(%esp)
  100636:	e8 a2 fd ff ff       	call   1003dd <stab_binsearch>

    if (lfun <= rfun) {
  10063b:	8b 55 dc             	mov    -0x24(%ebp),%edx
  10063e:	8b 45 d8             	mov    -0x28(%ebp),%eax
  100641:	39 c2                	cmp    %eax,%edx
  100643:	7f 7c                	jg     1006c1 <debuginfo_eip+0x18e>
        // stabs[lfun] points to the function name
        // in the string table, but check bounds just in case.
        if (stabs[lfun].n_strx < stabstr_end - stabstr) {
  100645:	8b 45 dc             	mov    -0x24(%ebp),%eax
  100648:	89 c2                	mov    %eax,%edx
  10064a:	89 d0                	mov    %edx,%eax
  10064c:	01 c0                	add    %eax,%eax
  10064e:	01 d0                	add    %edx,%eax
  100650:	c1 e0 02             	shl    $0x2,%eax
  100653:	89 c2                	mov    %eax,%edx
  100655:	8b 45 f4             	mov    -0xc(%ebp),%eax
  100658:	01 d0                	add    %edx,%eax
  10065a:	8b 10                	mov    (%eax),%edx
  10065c:	8b 4d e8             	mov    -0x18(%ebp),%ecx
  10065f:	8b 45 ec             	mov    -0x14(%ebp),%eax
  100662:	29 c1                	sub    %eax,%ecx
  100664:	89 c8                	mov    %ecx,%eax
  100666:	39 c2                	cmp    %eax,%edx
  100668:	73 22                	jae    10068c <debuginfo_eip+0x159>
            info->eip_fn_name = stabstr + stabs[lfun].n_strx;
  10066a:	8b 45 dc             	mov    -0x24(%ebp),%eax
  10066d:	89 c2                	mov    %eax,%edx
  10066f:	89 d0                	mov    %edx,%eax
  100671:	01 c0                	add    %eax,%eax
  100673:	01 d0                	add    %edx,%eax
  100675:	c1 e0 02             	shl    $0x2,%eax
  100678:	89 c2                	mov    %eax,%edx
  10067a:	8b 45 f4             	mov    -0xc(%ebp),%eax
  10067d:	01 d0                	add    %edx,%eax
  10067f:	8b 10                	mov    (%eax),%edx
  100681:	8b 45 ec             	mov    -0x14(%ebp),%eax
  100684:	01 c2                	add    %eax,%edx
  100686:	8b 45 0c             	mov    0xc(%ebp),%eax
  100689:	89 50 08             	mov    %edx,0x8(%eax)
        }
        info->eip_fn_addr = stabs[lfun].n_value;
  10068c:	8b 45 dc             	mov    -0x24(%ebp),%eax
  10068f:	89 c2                	mov    %eax,%edx
  100691:	89 d0                	mov    %edx,%eax
  100693:	01 c0                	add    %eax,%eax
  100695:	01 d0                	add    %edx,%eax
  100697:	c1 e0 02             	shl    $0x2,%eax
  10069a:	89 c2                	mov    %eax,%edx
  10069c:	8b 45 f4             	mov    -0xc(%ebp),%eax
  10069f:	01 d0                	add    %edx,%eax
  1006a1:	8b 50 08             	mov    0x8(%eax),%edx
  1006a4:	8b 45 0c             	mov    0xc(%ebp),%eax
  1006a7:	89 50 10             	mov    %edx,0x10(%eax)
        addr -= info->eip_fn_addr;
  1006aa:	8b 45 0c             	mov    0xc(%ebp),%eax
  1006ad:	8b 40 10             	mov    0x10(%eax),%eax
  1006b0:	29 45 08             	sub    %eax,0x8(%ebp)
        // Search within the function definition for the line number.
        lline = lfun;
  1006b3:	8b 45 dc             	mov    -0x24(%ebp),%eax
  1006b6:	89 45 d4             	mov    %eax,-0x2c(%ebp)
        rline = rfun;
  1006b9:	8b 45 d8             	mov    -0x28(%ebp),%eax
  1006bc:	89 45 d0             	mov    %eax,-0x30(%ebp)
  1006bf:	eb 15                	jmp    1006d6 <debuginfo_eip+0x1a3>
    } else {
        // Couldn't find function stab!  Maybe we're in an assembly
        // file.  Search the whole file for the line number.
        info->eip_fn_addr = addr;
  1006c1:	8b 45 0c             	mov    0xc(%ebp),%eax
  1006c4:	8b 55 08             	mov    0x8(%ebp),%edx
  1006c7:	89 50 10             	mov    %edx,0x10(%eax)
        lline = lfile;
  1006ca:	8b 45 e4             	mov    -0x1c(%ebp),%eax
  1006cd:	89 45 d4             	mov    %eax,-0x2c(%ebp)
        rline = rfile;
  1006d0:	8b 45 e0             	mov    -0x20(%ebp),%eax
  1006d3:	89 45 d0             	mov    %eax,-0x30(%ebp)
    }
    info->eip_fn_namelen = strfind(info->eip_fn_name, ':') - info->eip_fn_name;
  1006d6:	8b 45 0c             	mov    0xc(%ebp),%eax
  1006d9:	8b 40 08             	mov    0x8(%eax),%eax
  1006dc:	c7 44 24 04 3a 00 00 	movl   $0x3a,0x4(%esp)
  1006e3:	00 
  1006e4:	89 04 24             	mov    %eax,(%esp)
  1006e7:	e8 c1 54 00 00       	call   105bad <strfind>
  1006ec:	89 c2                	mov    %eax,%edx
  1006ee:	8b 45 0c             	mov    0xc(%ebp),%eax
  1006f1:	8b 40 08             	mov    0x8(%eax),%eax
  1006f4:	29 c2                	sub    %eax,%edx
  1006f6:	8b 45 0c             	mov    0xc(%ebp),%eax
  1006f9:	89 50 0c             	mov    %edx,0xc(%eax)

    // Search within [lline, rline] for the line number stab.
    // If found, set info->eip_line to the right line number.
    // If not found, return -1.
    stab_binsearch(stabs, &lline, &rline, N_SLINE, addr);
  1006fc:	8b 45 08             	mov    0x8(%ebp),%eax
  1006ff:	89 44 24 10          	mov    %eax,0x10(%esp)
  100703:	c7 44 24 0c 44 00 00 	movl   $0x44,0xc(%esp)
  10070a:	00 
  10070b:	8d 45 d0             	lea    -0x30(%ebp),%eax
  10070e:	89 44 24 08          	mov    %eax,0x8(%esp)
  100712:	8d 45 d4             	lea    -0x2c(%ebp),%eax
  100715:	89 44 24 04          	mov    %eax,0x4(%esp)
  100719:	8b 45 f4             	mov    -0xc(%ebp),%eax
  10071c:	89 04 24             	mov    %eax,(%esp)
  10071f:	e8 b9 fc ff ff       	call   1003dd <stab_binsearch>
    if (lline <= rline) {
  100724:	8b 55 d4             	mov    -0x2c(%ebp),%edx
  100727:	8b 45 d0             	mov    -0x30(%ebp),%eax
  10072a:	39 c2                	cmp    %eax,%edx
  10072c:	7f 24                	jg     100752 <debuginfo_eip+0x21f>
        info->eip_line = stabs[rline].n_desc;
  10072e:	8b 45 d0             	mov    -0x30(%ebp),%eax
  100731:	89 c2                	mov    %eax,%edx
  100733:	89 d0                	mov    %edx,%eax
  100735:	01 c0                	add    %eax,%eax
  100737:	01 d0                	add    %edx,%eax
  100739:	c1 e0 02             	shl    $0x2,%eax
  10073c:	89 c2                	mov    %eax,%edx
  10073e:	8b 45 f4             	mov    -0xc(%ebp),%eax
  100741:	01 d0                	add    %edx,%eax
  100743:	0f b7 40 06          	movzwl 0x6(%eax),%eax
  100747:	0f b7 d0             	movzwl %ax,%edx
  10074a:	8b 45 0c             	mov    0xc(%ebp),%eax
  10074d:	89 50 04             	mov    %edx,0x4(%eax)

    // Search backwards from the line number for the relevant filename stab.
    // We can't just use the "lfile" stab because inlined functions
    // can interpolate code from a different file!
    // Such included source files use the N_SOL stab type.
    while (lline >= lfile
  100750:	eb 13                	jmp    100765 <debuginfo_eip+0x232>
    // If not found, return -1.
    stab_binsearch(stabs, &lline, &rline, N_SLINE, addr);
    if (lline <= rline) {
        info->eip_line = stabs[rline].n_desc;
    } else {
        return -1;
  100752:	b8 ff ff ff ff       	mov    $0xffffffff,%eax
  100757:	e9 12 01 00 00       	jmp    10086e <debuginfo_eip+0x33b>
    // can interpolate code from a different file!
    // Such included source files use the N_SOL stab type.
    while (lline >= lfile
           && stabs[lline].n_type != N_SOL
           && (stabs[lline].n_type != N_SO || !stabs[lline].n_value)) {
        lline --;
  10075c:	8b 45 d4             	mov    -0x2c(%ebp),%eax
  10075f:	83 e8 01             	sub    $0x1,%eax
  100762:	89 45 d4             	mov    %eax,-0x2c(%ebp)

    // Search backwards from the line number for the relevant filename stab.
    // We can't just use the "lfile" stab because inlined functions
    // can interpolate code from a different file!
    // Such included source files use the N_SOL stab type.
    while (lline >= lfile
  100765:	8b 55 d4             	mov    -0x2c(%ebp),%edx
  100768:	8b 45 e4             	mov    -0x1c(%ebp),%eax
  10076b:	39 c2                	cmp    %eax,%edx
  10076d:	7c 56                	jl     1007c5 <debuginfo_eip+0x292>
           && stabs[lline].n_type != N_SOL
  10076f:	8b 45 d4             	mov    -0x2c(%ebp),%eax
  100772:	89 c2                	mov    %eax,%edx
  100774:	89 d0                	mov    %edx,%eax
  100776:	01 c0                	add    %eax,%eax
  100778:	01 d0                	add    %edx,%eax
  10077a:	c1 e0 02             	shl    $0x2,%eax
  10077d:	89 c2                	mov    %eax,%edx
  10077f:	8b 45 f4             	mov    -0xc(%ebp),%eax
  100782:	01 d0                	add    %edx,%eax
  100784:	0f b6 40 04          	movzbl 0x4(%eax),%eax
  100788:	3c 84                	cmp    $0x84,%al
  10078a:	74 39                	je     1007c5 <debuginfo_eip+0x292>
           && (stabs[lline].n_type != N_SO || !stabs[lline].n_value)) {
  10078c:	8b 45 d4             	mov    -0x2c(%ebp),%eax
  10078f:	89 c2                	mov    %eax,%edx
  100791:	89 d0                	mov    %edx,%eax
  100793:	01 c0                	add    %eax,%eax
  100795:	01 d0                	add    %edx,%eax
  100797:	c1 e0 02             	shl    $0x2,%eax
  10079a:	89 c2                	mov    %eax,%edx
  10079c:	8b 45 f4             	mov    -0xc(%ebp),%eax
  10079f:	01 d0                	add    %edx,%eax
  1007a1:	0f b6 40 04          	movzbl 0x4(%eax),%eax
  1007a5:	3c 64                	cmp    $0x64,%al
  1007a7:	75 b3                	jne    10075c <debuginfo_eip+0x229>
  1007a9:	8b 45 d4             	mov    -0x2c(%ebp),%eax
  1007ac:	89 c2                	mov    %eax,%edx
  1007ae:	89 d0                	mov    %edx,%eax
  1007b0:	01 c0                	add    %eax,%eax
  1007b2:	01 d0                	add    %edx,%eax
  1007b4:	c1 e0 02             	shl    $0x2,%eax
  1007b7:	89 c2                	mov    %eax,%edx
  1007b9:	8b 45 f4             	mov    -0xc(%ebp),%eax
  1007bc:	01 d0                	add    %edx,%eax
  1007be:	8b 40 08             	mov    0x8(%eax),%eax
  1007c1:	85 c0                	test   %eax,%eax
  1007c3:	74 97                	je     10075c <debuginfo_eip+0x229>
        lline --;
    }
    if (lline >= lfile && stabs[lline].n_strx < stabstr_end - stabstr) {
  1007c5:	8b 55 d4             	mov    -0x2c(%ebp),%edx
  1007c8:	8b 45 e4             	mov    -0x1c(%ebp),%eax
  1007cb:	39 c2                	cmp    %eax,%edx
  1007cd:	7c 46                	jl     100815 <debuginfo_eip+0x2e2>
  1007cf:	8b 45 d4             	mov    -0x2c(%ebp),%eax
  1007d2:	89 c2                	mov    %eax,%edx
  1007d4:	89 d0                	mov    %edx,%eax
  1007d6:	01 c0                	add    %eax,%eax
  1007d8:	01 d0                	add    %edx,%eax
  1007da:	c1 e0 02             	shl    $0x2,%eax
  1007dd:	89 c2                	mov    %eax,%edx
  1007df:	8b 45 f4             	mov    -0xc(%ebp),%eax
  1007e2:	01 d0                	add    %edx,%eax
  1007e4:	8b 10                	mov    (%eax),%edx
  1007e6:	8b 4d e8             	mov    -0x18(%ebp),%ecx
  1007e9:	8b 45 ec             	mov    -0x14(%ebp),%eax
  1007ec:	29 c1                	sub    %eax,%ecx
  1007ee:	89 c8                	mov    %ecx,%eax
  1007f0:	39 c2                	cmp    %eax,%edx
  1007f2:	73 21                	jae    100815 <debuginfo_eip+0x2e2>
        info->eip_file = stabstr + stabs[lline].n_strx;
  1007f4:	8b 45 d4             	mov    -0x2c(%ebp),%eax
  1007f7:	89 c2                	mov    %eax,%edx
  1007f9:	89 d0                	mov    %edx,%eax
  1007fb:	01 c0                	add    %eax,%eax
  1007fd:	01 d0                	add    %edx,%eax
  1007ff:	c1 e0 02             	shl    $0x2,%eax
  100802:	89 c2                	mov    %eax,%edx
  100804:	8b 45 f4             	mov    -0xc(%ebp),%eax
  100807:	01 d0                	add    %edx,%eax
  100809:	8b 10                	mov    (%eax),%edx
  10080b:	8b 45 ec             	mov    -0x14(%ebp),%eax
  10080e:	01 c2                	add    %eax,%edx
  100810:	8b 45 0c             	mov    0xc(%ebp),%eax
  100813:	89 10                	mov    %edx,(%eax)
    }

    // Set eip_fn_narg to the number of arguments taken by the function,
    // or 0 if there was no containing function.
    if (lfun < rfun) {
  100815:	8b 55 dc             	mov    -0x24(%ebp),%edx
  100818:	8b 45 d8             	mov    -0x28(%ebp),%eax
  10081b:	39 c2                	cmp    %eax,%edx
  10081d:	7d 4a                	jge    100869 <debuginfo_eip+0x336>
        for (lline = lfun + 1;
  10081f:	8b 45 dc             	mov    -0x24(%ebp),%eax
  100822:	83 c0 01             	add    $0x1,%eax
  100825:	89 45 d4             	mov    %eax,-0x2c(%ebp)
  100828:	eb 18                	jmp    100842 <debuginfo_eip+0x30f>
             lline < rfun && stabs[lline].n_type == N_PSYM;
             lline ++) {
            info->eip_fn_narg ++;
  10082a:	8b 45 0c             	mov    0xc(%ebp),%eax
  10082d:	8b 40 14             	mov    0x14(%eax),%eax
  100830:	8d 50 01             	lea    0x1(%eax),%edx
  100833:	8b 45 0c             	mov    0xc(%ebp),%eax
  100836:	89 50 14             	mov    %edx,0x14(%eax)
    // Set eip_fn_narg to the number of arguments taken by the function,
    // or 0 if there was no containing function.
    if (lfun < rfun) {
        for (lline = lfun + 1;
             lline < rfun && stabs[lline].n_type == N_PSYM;
             lline ++) {
  100839:	8b 45 d4             	mov    -0x2c(%ebp),%eax
  10083c:	83 c0 01             	add    $0x1,%eax
  10083f:	89 45 d4             	mov    %eax,-0x2c(%ebp)

    // Set eip_fn_narg to the number of arguments taken by the function,
    // or 0 if there was no containing function.
    if (lfun < rfun) {
        for (lline = lfun + 1;
             lline < rfun && stabs[lline].n_type == N_PSYM;
  100842:	8b 55 d4             	mov    -0x2c(%ebp),%edx
  100845:	8b 45 d8             	mov    -0x28(%ebp),%eax
    }

    // Set eip_fn_narg to the number of arguments taken by the function,
    // or 0 if there was no containing function.
    if (lfun < rfun) {
        for (lline = lfun + 1;
  100848:	39 c2                	cmp    %eax,%edx
  10084a:	7d 1d                	jge    100869 <debuginfo_eip+0x336>
             lline < rfun && stabs[lline].n_type == N_PSYM;
  10084c:	8b 45 d4             	mov    -0x2c(%ebp),%eax
  10084f:	89 c2                	mov    %eax,%edx
  100851:	89 d0                	mov    %edx,%eax
  100853:	01 c0                	add    %eax,%eax
  100855:	01 d0                	add    %edx,%eax
  100857:	c1 e0 02             	shl    $0x2,%eax
  10085a:	89 c2                	mov    %eax,%edx
  10085c:	8b 45 f4             	mov    -0xc(%ebp),%eax
  10085f:	01 d0                	add    %edx,%eax
  100861:	0f b6 40 04          	movzbl 0x4(%eax),%eax
  100865:	3c a0                	cmp    $0xa0,%al
  100867:	74 c1                	je     10082a <debuginfo_eip+0x2f7>
             lline ++) {
            info->eip_fn_narg ++;
        }
    }
    return 0;
  100869:	b8 00 00 00 00       	mov    $0x0,%eax
}
  10086e:	c9                   	leave  
  10086f:	c3                   	ret    

00100870 <print_kerninfo>:
 * print_kerninfo - print the information about kernel, including the location
 * of kernel entry, the start addresses of data and text segements, the start
 * address of free memory and how many memory that kernel has used.
 * */
void
print_kerninfo(void) {
  100870:	55                   	push   %ebp
  100871:	89 e5                	mov    %esp,%ebp
  100873:	83 ec 18             	sub    $0x18,%esp
    extern char etext[], edata[], end[], kern_init[];
    cprintf("Special kernel symbols:\n");
  100876:	c7 04 24 96 5f 10 00 	movl   $0x105f96,(%esp)
  10087d:	e8 ba fa ff ff       	call   10033c <cprintf>
    cprintf("  entry  0x%08x (phys)\n", kern_init);
  100882:	c7 44 24 04 2a 00 10 	movl   $0x10002a,0x4(%esp)
  100889:	00 
  10088a:	c7 04 24 af 5f 10 00 	movl   $0x105faf,(%esp)
  100891:	e8 a6 fa ff ff       	call   10033c <cprintf>
    cprintf("  etext  0x%08x (phys)\n", etext);
  100896:	c7 44 24 04 c2 5e 10 	movl   $0x105ec2,0x4(%esp)
  10089d:	00 
  10089e:	c7 04 24 c7 5f 10 00 	movl   $0x105fc7,(%esp)
  1008a5:	e8 92 fa ff ff       	call   10033c <cprintf>
    cprintf("  edata  0x%08x (phys)\n", edata);
  1008aa:	c7 44 24 04 36 7a 11 	movl   $0x117a36,0x4(%esp)
  1008b1:	00 
  1008b2:	c7 04 24 df 5f 10 00 	movl   $0x105fdf,(%esp)
  1008b9:	e8 7e fa ff ff       	call   10033c <cprintf>
    cprintf("  end    0x%08x (phys)\n", end);
  1008be:	c7 44 24 04 68 89 11 	movl   $0x118968,0x4(%esp)
  1008c5:	00 
  1008c6:	c7 04 24 f7 5f 10 00 	movl   $0x105ff7,(%esp)
  1008cd:	e8 6a fa ff ff       	call   10033c <cprintf>
    cprintf("Kernel executable memory footprint: %dKB\n", (end - kern_init + 1023)/1024);
  1008d2:	b8 68 89 11 00       	mov    $0x118968,%eax
  1008d7:	8d 90 ff 03 00 00    	lea    0x3ff(%eax),%edx
  1008dd:	b8 2a 00 10 00       	mov    $0x10002a,%eax
  1008e2:	29 c2                	sub    %eax,%edx
  1008e4:	89 d0                	mov    %edx,%eax
  1008e6:	8d 90 ff 03 00 00    	lea    0x3ff(%eax),%edx
  1008ec:	85 c0                	test   %eax,%eax
  1008ee:	0f 48 c2             	cmovs  %edx,%eax
  1008f1:	c1 f8 0a             	sar    $0xa,%eax
  1008f4:	89 44 24 04          	mov    %eax,0x4(%esp)
  1008f8:	c7 04 24 10 60 10 00 	movl   $0x106010,(%esp)
  1008ff:	e8 38 fa ff ff       	call   10033c <cprintf>
}
  100904:	c9                   	leave  
  100905:	c3                   	ret    

00100906 <print_debuginfo>:
/* *
 * print_debuginfo - read and print the stat information for the address @eip,
 * and info.eip_fn_addr should be the first address of the related function.
 * */
void
print_debuginfo(uintptr_t eip) {
  100906:	55                   	push   %ebp
  100907:	89 e5                	mov    %esp,%ebp
  100909:	81 ec 48 01 00 00    	sub    $0x148,%esp
    struct eipdebuginfo info;
    if (debuginfo_eip(eip, &info) != 0) {
  10090f:	8d 45 dc             	lea    -0x24(%ebp),%eax
  100912:	89 44 24 04          	mov    %eax,0x4(%esp)
  100916:	8b 45 08             	mov    0x8(%ebp),%eax
  100919:	89 04 24             	mov    %eax,(%esp)
  10091c:	e8 12 fc ff ff       	call   100533 <debuginfo_eip>
  100921:	85 c0                	test   %eax,%eax
  100923:	74 15                	je     10093a <print_debuginfo+0x34>
        cprintf("    <unknow>: -- 0x%08x --\n", eip);
  100925:	8b 45 08             	mov    0x8(%ebp),%eax
  100928:	89 44 24 04          	mov    %eax,0x4(%esp)
  10092c:	c7 04 24 3a 60 10 00 	movl   $0x10603a,(%esp)
  100933:	e8 04 fa ff ff       	call   10033c <cprintf>
  100938:	eb 6d                	jmp    1009a7 <print_debuginfo+0xa1>
    }
    else {
        char fnname[256];
        int j;
        for (j = 0; j < info.eip_fn_namelen; j ++) {
  10093a:	c7 45 f4 00 00 00 00 	movl   $0x0,-0xc(%ebp)
  100941:	eb 1c                	jmp    10095f <print_debuginfo+0x59>
            fnname[j] = info.eip_fn_name[j];
  100943:	8b 55 e4             	mov    -0x1c(%ebp),%edx
  100946:	8b 45 f4             	mov    -0xc(%ebp),%eax
  100949:	01 d0                	add    %edx,%eax
  10094b:	0f b6 00             	movzbl (%eax),%eax
  10094e:	8d 8d dc fe ff ff    	lea    -0x124(%ebp),%ecx
  100954:	8b 55 f4             	mov    -0xc(%ebp),%edx
  100957:	01 ca                	add    %ecx,%edx
  100959:	88 02                	mov    %al,(%edx)
        cprintf("    <unknow>: -- 0x%08x --\n", eip);
    }
    else {
        char fnname[256];
        int j;
        for (j = 0; j < info.eip_fn_namelen; j ++) {
  10095b:	83 45 f4 01          	addl   $0x1,-0xc(%ebp)
  10095f:	8b 45 e8             	mov    -0x18(%ebp),%eax
  100962:	3b 45 f4             	cmp    -0xc(%ebp),%eax
  100965:	7f dc                	jg     100943 <print_debuginfo+0x3d>
            fnname[j] = info.eip_fn_name[j];
        }
        fnname[j] = '\0';
  100967:	8d 95 dc fe ff ff    	lea    -0x124(%ebp),%edx
  10096d:	8b 45 f4             	mov    -0xc(%ebp),%eax
  100970:	01 d0                	add    %edx,%eax
  100972:	c6 00 00             	movb   $0x0,(%eax)
        cprintf("    %s:%d: %s+%d\n", info.eip_file, info.eip_line,
                fnname, eip - info.eip_fn_addr);
  100975:	8b 45 ec             	mov    -0x14(%ebp),%eax
        int j;
        for (j = 0; j < info.eip_fn_namelen; j ++) {
            fnname[j] = info.eip_fn_name[j];
        }
        fnname[j] = '\0';
        cprintf("    %s:%d: %s+%d\n", info.eip_file, info.eip_line,
  100978:	8b 55 08             	mov    0x8(%ebp),%edx
  10097b:	89 d1                	mov    %edx,%ecx
  10097d:	29 c1                	sub    %eax,%ecx
  10097f:	8b 55 e0             	mov    -0x20(%ebp),%edx
  100982:	8b 45 dc             	mov    -0x24(%ebp),%eax
  100985:	89 4c 24 10          	mov    %ecx,0x10(%esp)
  100989:	8d 8d dc fe ff ff    	lea    -0x124(%ebp),%ecx
  10098f:	89 4c 24 0c          	mov    %ecx,0xc(%esp)
  100993:	89 54 24 08          	mov    %edx,0x8(%esp)
  100997:	89 44 24 04          	mov    %eax,0x4(%esp)
  10099b:	c7 04 24 56 60 10 00 	movl   $0x106056,(%esp)
  1009a2:	e8 95 f9 ff ff       	call   10033c <cprintf>
                fnname, eip - info.eip_fn_addr);
    }
}
  1009a7:	c9                   	leave  
  1009a8:	c3                   	ret    

001009a9 <read_eip>:

static __noinline uint32_t
read_eip(void) {
  1009a9:	55                   	push   %ebp
  1009aa:	89 e5                	mov    %esp,%ebp
  1009ac:	83 ec 10             	sub    $0x10,%esp
    uint32_t eip;
    asm volatile("movl 4(%%ebp), %0" : "=r" (eip));
  1009af:	8b 45 04             	mov    0x4(%ebp),%eax
  1009b2:	89 45 fc             	mov    %eax,-0x4(%ebp)
    return eip;
  1009b5:	8b 45 fc             	mov    -0x4(%ebp),%eax
}
  1009b8:	c9                   	leave  
  1009b9:	c3                   	ret    

001009ba <print_stackframe>:
 *
 * Note that, the length of ebp-chain is limited. In boot/bootasm.S, before jumping
 * to the kernel entry, the value of ebp has been set to zero, that's the boundary.
 * */
void
print_stackframe(void) {
  1009ba:	55                   	push   %ebp
  1009bb:	89 e5                	mov    %esp,%ebp
  1009bd:	53                   	push   %ebx
  1009be:	83 ec 44             	sub    $0x44,%esp
}

static inline uint32_t
read_ebp(void) {
    uint32_t ebp;
    asm volatile ("movl %%ebp, %0" : "=r" (ebp));
  1009c1:	89 e8                	mov    %ebp,%eax
  1009c3:	89 45 e4             	mov    %eax,-0x1c(%ebp)
    return ebp;
  1009c6:	8b 45 e4             	mov    -0x1c(%ebp),%eax
      *    (3.4) call print_debuginfo(eip-1) to print the C calling function name and line number, etc.
      *    (3.5) popup a calling stackframe
      *           NOTICE: the calling funciton's return addr eip  = ss:[ebp+4]
      *                   the calling funciton's ebp = ss:[ebp]
      */
	      uint32_t ebp = read_ebp();
  1009c9:	89 45 f4             	mov    %eax,-0xc(%ebp)
		  uint32_t eip = read_eip();
  1009cc:	e8 d8 ff ff ff       	call   1009a9 <read_eip>
  1009d1:	89 45 f0             	mov    %eax,-0x10(%ebp)
		  int i;
		  for (i=0; i<STACKFRAME_DEPTH; i++) {
  1009d4:	c7 45 ec 00 00 00 00 	movl   $0x0,-0x14(%ebp)
  1009db:	e9 89 00 00 00       	jmp    100a69 <print_stackframe+0xaf>
		     cprintf("ebp:0x%08x eip:0x%08x ", ebp, eip);
  1009e0:	8b 45 f0             	mov    -0x10(%ebp),%eax
  1009e3:	89 44 24 08          	mov    %eax,0x8(%esp)
  1009e7:	8b 45 f4             	mov    -0xc(%ebp),%eax
  1009ea:	89 44 24 04          	mov    %eax,0x4(%esp)
  1009ee:	c7 04 24 68 60 10 00 	movl   $0x106068,(%esp)
  1009f5:	e8 42 f9 ff ff       	call   10033c <cprintf>
		     uint32_t* arg = (uint32_t*)ebp+2;
  1009fa:	8b 45 f4             	mov    -0xc(%ebp),%eax
  1009fd:	83 c0 08             	add    $0x8,%eax
  100a00:	89 45 e8             	mov    %eax,-0x18(%ebp)
		     cprintf("args: 0x%08x 0x%08x 0x%08x 0x%08x\n", arg[0], arg[1], arg[2], arg[3]);
  100a03:	8b 45 e8             	mov    -0x18(%ebp),%eax
  100a06:	83 c0 0c             	add    $0xc,%eax
  100a09:	8b 18                	mov    (%eax),%ebx
  100a0b:	8b 45 e8             	mov    -0x18(%ebp),%eax
  100a0e:	83 c0 08             	add    $0x8,%eax
  100a11:	8b 08                	mov    (%eax),%ecx
  100a13:	8b 45 e8             	mov    -0x18(%ebp),%eax
  100a16:	83 c0 04             	add    $0x4,%eax
  100a19:	8b 10                	mov    (%eax),%edx
  100a1b:	8b 45 e8             	mov    -0x18(%ebp),%eax
  100a1e:	8b 00                	mov    (%eax),%eax
  100a20:	89 5c 24 10          	mov    %ebx,0x10(%esp)
  100a24:	89 4c 24 0c          	mov    %ecx,0xc(%esp)
  100a28:	89 54 24 08          	mov    %edx,0x8(%esp)
  100a2c:	89 44 24 04          	mov    %eax,0x4(%esp)
  100a30:	c7 04 24 80 60 10 00 	movl   $0x106080,(%esp)
  100a37:	e8 00 f9 ff ff       	call   10033c <cprintf>
		     print_debuginfo(eip-1);
  100a3c:	8b 45 f0             	mov    -0x10(%ebp),%eax
  100a3f:	83 e8 01             	sub    $0x1,%eax
  100a42:	89 04 24             	mov    %eax,(%esp)
  100a45:	e8 bc fe ff ff       	call   100906 <print_debuginfo>
		     eip = *((uint32_t*)ebp+1);
  100a4a:	8b 45 f4             	mov    -0xc(%ebp),%eax
  100a4d:	83 c0 04             	add    $0x4,%eax
  100a50:	8b 00                	mov    (%eax),%eax
  100a52:	89 45 f0             	mov    %eax,-0x10(%ebp)
		     ebp = *(uint32_t *)ebp;
  100a55:	8b 45 f4             	mov    -0xc(%ebp),%eax
  100a58:	8b 00                	mov    (%eax),%eax
  100a5a:	89 45 f4             	mov    %eax,-0xc(%ebp)
		     if (ebp == 0) break;
  100a5d:	83 7d f4 00          	cmpl   $0x0,-0xc(%ebp)
  100a61:	75 02                	jne    100a65 <print_stackframe+0xab>
  100a63:	eb 0e                	jmp    100a73 <print_stackframe+0xb9>
      *                   the calling funciton's ebp = ss:[ebp]
      */
	      uint32_t ebp = read_ebp();
		  uint32_t eip = read_eip();
		  int i;
		  for (i=0; i<STACKFRAME_DEPTH; i++) {
  100a65:	83 45 ec 01          	addl   $0x1,-0x14(%ebp)
  100a69:	83 7d ec 13          	cmpl   $0x13,-0x14(%ebp)
  100a6d:	0f 8e 6d ff ff ff    	jle    1009e0 <print_stackframe+0x26>
		     print_debuginfo(eip-1);
		     eip = *((uint32_t*)ebp+1);
		     ebp = *(uint32_t *)ebp;
		     if (ebp == 0) break;
		  }
}
  100a73:	83 c4 44             	add    $0x44,%esp
  100a76:	5b                   	pop    %ebx
  100a77:	5d                   	pop    %ebp
  100a78:	c3                   	ret    

00100a79 <parse>:
#define MAXARGS         16
#define WHITESPACE      " \t\n\r"

/* parse - parse the command buffer into whitespace-separated arguments */
static int
parse(char *buf, char **argv) {
  100a79:	55                   	push   %ebp
  100a7a:	89 e5                	mov    %esp,%ebp
  100a7c:	83 ec 28             	sub    $0x28,%esp
    int argc = 0;
  100a7f:	c7 45 f4 00 00 00 00 	movl   $0x0,-0xc(%ebp)
    while (1) {
        // find global whitespace
        while (*buf != '\0' && strchr(WHITESPACE, *buf) != NULL) {
  100a86:	eb 0c                	jmp    100a94 <parse+0x1b>
            *buf ++ = '\0';
  100a88:	8b 45 08             	mov    0x8(%ebp),%eax
  100a8b:	8d 50 01             	lea    0x1(%eax),%edx
  100a8e:	89 55 08             	mov    %edx,0x8(%ebp)
  100a91:	c6 00 00             	movb   $0x0,(%eax)
static int
parse(char *buf, char **argv) {
    int argc = 0;
    while (1) {
        // find global whitespace
        while (*buf != '\0' && strchr(WHITESPACE, *buf) != NULL) {
  100a94:	8b 45 08             	mov    0x8(%ebp),%eax
  100a97:	0f b6 00             	movzbl (%eax),%eax
  100a9a:	84 c0                	test   %al,%al
  100a9c:	74 1d                	je     100abb <parse+0x42>
  100a9e:	8b 45 08             	mov    0x8(%ebp),%eax
  100aa1:	0f b6 00             	movzbl (%eax),%eax
  100aa4:	0f be c0             	movsbl %al,%eax
  100aa7:	89 44 24 04          	mov    %eax,0x4(%esp)
  100aab:	c7 04 24 24 61 10 00 	movl   $0x106124,(%esp)
  100ab2:	e8 c3 50 00 00       	call   105b7a <strchr>
  100ab7:	85 c0                	test   %eax,%eax
  100ab9:	75 cd                	jne    100a88 <parse+0xf>
            *buf ++ = '\0';
        }
        if (*buf == '\0') {
  100abb:	8b 45 08             	mov    0x8(%ebp),%eax
  100abe:	0f b6 00             	movzbl (%eax),%eax
  100ac1:	84 c0                	test   %al,%al
  100ac3:	75 02                	jne    100ac7 <parse+0x4e>
            break;
  100ac5:	eb 67                	jmp    100b2e <parse+0xb5>
        }

        // save and scan past next arg
        if (argc == MAXARGS - 1) {
  100ac7:	83 7d f4 0f          	cmpl   $0xf,-0xc(%ebp)
  100acb:	75 14                	jne    100ae1 <parse+0x68>
            cprintf("Too many arguments (max %d).\n", MAXARGS);
  100acd:	c7 44 24 04 10 00 00 	movl   $0x10,0x4(%esp)
  100ad4:	00 
  100ad5:	c7 04 24 29 61 10 00 	movl   $0x106129,(%esp)
  100adc:	e8 5b f8 ff ff       	call   10033c <cprintf>
        }
        argv[argc ++] = buf;
  100ae1:	8b 45 f4             	mov    -0xc(%ebp),%eax
  100ae4:	8d 50 01             	lea    0x1(%eax),%edx
  100ae7:	89 55 f4             	mov    %edx,-0xc(%ebp)
  100aea:	8d 14 85 00 00 00 00 	lea    0x0(,%eax,4),%edx
  100af1:	8b 45 0c             	mov    0xc(%ebp),%eax
  100af4:	01 c2                	add    %eax,%edx
  100af6:	8b 45 08             	mov    0x8(%ebp),%eax
  100af9:	89 02                	mov    %eax,(%edx)
        while (*buf != '\0' && strchr(WHITESPACE, *buf) == NULL) {
  100afb:	eb 04                	jmp    100b01 <parse+0x88>
            buf ++;
  100afd:	83 45 08 01          	addl   $0x1,0x8(%ebp)
        // save and scan past next arg
        if (argc == MAXARGS - 1) {
            cprintf("Too many arguments (max %d).\n", MAXARGS);
        }
        argv[argc ++] = buf;
        while (*buf != '\0' && strchr(WHITESPACE, *buf) == NULL) {
  100b01:	8b 45 08             	mov    0x8(%ebp),%eax
  100b04:	0f b6 00             	movzbl (%eax),%eax
  100b07:	84 c0                	test   %al,%al
  100b09:	74 1d                	je     100b28 <parse+0xaf>
  100b0b:	8b 45 08             	mov    0x8(%ebp),%eax
  100b0e:	0f b6 00             	movzbl (%eax),%eax
  100b11:	0f be c0             	movsbl %al,%eax
  100b14:	89 44 24 04          	mov    %eax,0x4(%esp)
  100b18:	c7 04 24 24 61 10 00 	movl   $0x106124,(%esp)
  100b1f:	e8 56 50 00 00       	call   105b7a <strchr>
  100b24:	85 c0                	test   %eax,%eax
  100b26:	74 d5                	je     100afd <parse+0x84>
            buf ++;
        }
    }
  100b28:	90                   	nop
static int
parse(char *buf, char **argv) {
    int argc = 0;
    while (1) {
        // find global whitespace
        while (*buf != '\0' && strchr(WHITESPACE, *buf) != NULL) {
  100b29:	e9 66 ff ff ff       	jmp    100a94 <parse+0x1b>
        argv[argc ++] = buf;
        while (*buf != '\0' && strchr(WHITESPACE, *buf) == NULL) {
            buf ++;
        }
    }
    return argc;
  100b2e:	8b 45 f4             	mov    -0xc(%ebp),%eax
}
  100b31:	c9                   	leave  
  100b32:	c3                   	ret    

00100b33 <runcmd>:
/* *
 * runcmd - parse the input string, split it into separated arguments
 * and then lookup and invoke some related commands/
 * */
static int
runcmd(char *buf, struct trapframe *tf) {
  100b33:	55                   	push   %ebp
  100b34:	89 e5                	mov    %esp,%ebp
  100b36:	83 ec 68             	sub    $0x68,%esp
    char *argv[MAXARGS];
    int argc = parse(buf, argv);
  100b39:	8d 45 b0             	lea    -0x50(%ebp),%eax
  100b3c:	89 44 24 04          	mov    %eax,0x4(%esp)
  100b40:	8b 45 08             	mov    0x8(%ebp),%eax
  100b43:	89 04 24             	mov    %eax,(%esp)
  100b46:	e8 2e ff ff ff       	call   100a79 <parse>
  100b4b:	89 45 f0             	mov    %eax,-0x10(%ebp)
    if (argc == 0) {
  100b4e:	83 7d f0 00          	cmpl   $0x0,-0x10(%ebp)
  100b52:	75 0a                	jne    100b5e <runcmd+0x2b>
        return 0;
  100b54:	b8 00 00 00 00       	mov    $0x0,%eax
  100b59:	e9 85 00 00 00       	jmp    100be3 <runcmd+0xb0>
    }
    int i;
    for (i = 0; i < NCOMMANDS; i ++) {
  100b5e:	c7 45 f4 00 00 00 00 	movl   $0x0,-0xc(%ebp)
  100b65:	eb 5c                	jmp    100bc3 <runcmd+0x90>
        if (strcmp(commands[i].name, argv[0]) == 0) {
  100b67:	8b 4d b0             	mov    -0x50(%ebp),%ecx
  100b6a:	8b 55 f4             	mov    -0xc(%ebp),%edx
  100b6d:	89 d0                	mov    %edx,%eax
  100b6f:	01 c0                	add    %eax,%eax
  100b71:	01 d0                	add    %edx,%eax
  100b73:	c1 e0 02             	shl    $0x2,%eax
  100b76:	05 20 70 11 00       	add    $0x117020,%eax
  100b7b:	8b 00                	mov    (%eax),%eax
  100b7d:	89 4c 24 04          	mov    %ecx,0x4(%esp)
  100b81:	89 04 24             	mov    %eax,(%esp)
  100b84:	e8 52 4f 00 00       	call   105adb <strcmp>
  100b89:	85 c0                	test   %eax,%eax
  100b8b:	75 32                	jne    100bbf <runcmd+0x8c>
            return commands[i].func(argc - 1, argv + 1, tf);
  100b8d:	8b 55 f4             	mov    -0xc(%ebp),%edx
  100b90:	89 d0                	mov    %edx,%eax
  100b92:	01 c0                	add    %eax,%eax
  100b94:	01 d0                	add    %edx,%eax
  100b96:	c1 e0 02             	shl    $0x2,%eax
  100b99:	05 20 70 11 00       	add    $0x117020,%eax
  100b9e:	8b 40 08             	mov    0x8(%eax),%eax
  100ba1:	8b 55 f0             	mov    -0x10(%ebp),%edx
  100ba4:	8d 4a ff             	lea    -0x1(%edx),%ecx
  100ba7:	8b 55 0c             	mov    0xc(%ebp),%edx
  100baa:	89 54 24 08          	mov    %edx,0x8(%esp)
  100bae:	8d 55 b0             	lea    -0x50(%ebp),%edx
  100bb1:	83 c2 04             	add    $0x4,%edx
  100bb4:	89 54 24 04          	mov    %edx,0x4(%esp)
  100bb8:	89 0c 24             	mov    %ecx,(%esp)
  100bbb:	ff d0                	call   *%eax
  100bbd:	eb 24                	jmp    100be3 <runcmd+0xb0>
    int argc = parse(buf, argv);
    if (argc == 0) {
        return 0;
    }
    int i;
    for (i = 0; i < NCOMMANDS; i ++) {
  100bbf:	83 45 f4 01          	addl   $0x1,-0xc(%ebp)
  100bc3:	8b 45 f4             	mov    -0xc(%ebp),%eax
  100bc6:	83 f8 02             	cmp    $0x2,%eax
  100bc9:	76 9c                	jbe    100b67 <runcmd+0x34>
        if (strcmp(commands[i].name, argv[0]) == 0) {
            return commands[i].func(argc - 1, argv + 1, tf);
        }
    }
    cprintf("Unknown command '%s'\n", argv[0]);
  100bcb:	8b 45 b0             	mov    -0x50(%ebp),%eax
  100bce:	89 44 24 04          	mov    %eax,0x4(%esp)
  100bd2:	c7 04 24 47 61 10 00 	movl   $0x106147,(%esp)
  100bd9:	e8 5e f7 ff ff       	call   10033c <cprintf>
    return 0;
  100bde:	b8 00 00 00 00       	mov    $0x0,%eax
}
  100be3:	c9                   	leave  
  100be4:	c3                   	ret    

00100be5 <kmonitor>:

/***** Implementations of basic kernel monitor commands *****/

void
kmonitor(struct trapframe *tf) {
  100be5:	55                   	push   %ebp
  100be6:	89 e5                	mov    %esp,%ebp
  100be8:	83 ec 28             	sub    $0x28,%esp
    cprintf("Welcome to the kernel debug monitor!!\n");
  100beb:	c7 04 24 60 61 10 00 	movl   $0x106160,(%esp)
  100bf2:	e8 45 f7 ff ff       	call   10033c <cprintf>
    cprintf("Type 'help' for a list of commands.\n");
  100bf7:	c7 04 24 88 61 10 00 	movl   $0x106188,(%esp)
  100bfe:	e8 39 f7 ff ff       	call   10033c <cprintf>

    if (tf != NULL) {
  100c03:	83 7d 08 00          	cmpl   $0x0,0x8(%ebp)
  100c07:	74 0b                	je     100c14 <kmonitor+0x2f>
        print_trapframe(tf);
  100c09:	8b 45 08             	mov    0x8(%ebp),%eax
  100c0c:	89 04 24             	mov    %eax,(%esp)
  100c0f:	e8 30 0e 00 00       	call   101a44 <print_trapframe>
    }

    char *buf;
    while (1) {
        if ((buf = readline("K> ")) != NULL) {
  100c14:	c7 04 24 ad 61 10 00 	movl   $0x1061ad,(%esp)
  100c1b:	e8 13 f6 ff ff       	call   100233 <readline>
  100c20:	89 45 f4             	mov    %eax,-0xc(%ebp)
  100c23:	83 7d f4 00          	cmpl   $0x0,-0xc(%ebp)
  100c27:	74 18                	je     100c41 <kmonitor+0x5c>
            if (runcmd(buf, tf) < 0) {
  100c29:	8b 45 08             	mov    0x8(%ebp),%eax
  100c2c:	89 44 24 04          	mov    %eax,0x4(%esp)
  100c30:	8b 45 f4             	mov    -0xc(%ebp),%eax
  100c33:	89 04 24             	mov    %eax,(%esp)
  100c36:	e8 f8 fe ff ff       	call   100b33 <runcmd>
  100c3b:	85 c0                	test   %eax,%eax
  100c3d:	79 02                	jns    100c41 <kmonitor+0x5c>
                break;
  100c3f:	eb 02                	jmp    100c43 <kmonitor+0x5e>
            }
        }
    }
  100c41:	eb d1                	jmp    100c14 <kmonitor+0x2f>
}
  100c43:	c9                   	leave  
  100c44:	c3                   	ret    

00100c45 <mon_help>:

/* mon_help - print the information about mon_* functions */
int
mon_help(int argc, char **argv, struct trapframe *tf) {
  100c45:	55                   	push   %ebp
  100c46:	89 e5                	mov    %esp,%ebp
  100c48:	83 ec 28             	sub    $0x28,%esp
    int i;
    for (i = 0; i < NCOMMANDS; i ++) {
  100c4b:	c7 45 f4 00 00 00 00 	movl   $0x0,-0xc(%ebp)
  100c52:	eb 3f                	jmp    100c93 <mon_help+0x4e>
        cprintf("%s - %s\n", commands[i].name, commands[i].desc);
  100c54:	8b 55 f4             	mov    -0xc(%ebp),%edx
  100c57:	89 d0                	mov    %edx,%eax
  100c59:	01 c0                	add    %eax,%eax
  100c5b:	01 d0                	add    %edx,%eax
  100c5d:	c1 e0 02             	shl    $0x2,%eax
  100c60:	05 20 70 11 00       	add    $0x117020,%eax
  100c65:	8b 48 04             	mov    0x4(%eax),%ecx
  100c68:	8b 55 f4             	mov    -0xc(%ebp),%edx
  100c6b:	89 d0                	mov    %edx,%eax
  100c6d:	01 c0                	add    %eax,%eax
  100c6f:	01 d0                	add    %edx,%eax
  100c71:	c1 e0 02             	shl    $0x2,%eax
  100c74:	05 20 70 11 00       	add    $0x117020,%eax
  100c79:	8b 00                	mov    (%eax),%eax
  100c7b:	89 4c 24 08          	mov    %ecx,0x8(%esp)
  100c7f:	89 44 24 04          	mov    %eax,0x4(%esp)
  100c83:	c7 04 24 b1 61 10 00 	movl   $0x1061b1,(%esp)
  100c8a:	e8 ad f6 ff ff       	call   10033c <cprintf>

/* mon_help - print the information about mon_* functions */
int
mon_help(int argc, char **argv, struct trapframe *tf) {
    int i;
    for (i = 0; i < NCOMMANDS; i ++) {
  100c8f:	83 45 f4 01          	addl   $0x1,-0xc(%ebp)
  100c93:	8b 45 f4             	mov    -0xc(%ebp),%eax
  100c96:	83 f8 02             	cmp    $0x2,%eax
  100c99:	76 b9                	jbe    100c54 <mon_help+0xf>
        cprintf("%s - %s\n", commands[i].name, commands[i].desc);
    }
    return 0;
  100c9b:	b8 00 00 00 00       	mov    $0x0,%eax
}
  100ca0:	c9                   	leave  
  100ca1:	c3                   	ret    

00100ca2 <mon_kerninfo>:
/* *
 * mon_kerninfo - call print_kerninfo in kern/debug/kdebug.c to
 * print the memory occupancy in kernel.
 * */
int
mon_kerninfo(int argc, char **argv, struct trapframe *tf) {
  100ca2:	55                   	push   %ebp
  100ca3:	89 e5                	mov    %esp,%ebp
  100ca5:	83 ec 08             	sub    $0x8,%esp
    print_kerninfo();
  100ca8:	e8 c3 fb ff ff       	call   100870 <print_kerninfo>
    return 0;
  100cad:	b8 00 00 00 00       	mov    $0x0,%eax
}
  100cb2:	c9                   	leave  
  100cb3:	c3                   	ret    

00100cb4 <mon_backtrace>:
/* *
 * mon_backtrace - call print_stackframe in kern/debug/kdebug.c to
 * print a backtrace of the stack.
 * */
int
mon_backtrace(int argc, char **argv, struct trapframe *tf) {
  100cb4:	55                   	push   %ebp
  100cb5:	89 e5                	mov    %esp,%ebp
  100cb7:	83 ec 08             	sub    $0x8,%esp
    print_stackframe();
  100cba:	e8 fb fc ff ff       	call   1009ba <print_stackframe>
    return 0;
  100cbf:	b8 00 00 00 00       	mov    $0x0,%eax
}
  100cc4:	c9                   	leave  
  100cc5:	c3                   	ret    

00100cc6 <__panic>:
/* *
 * __panic - __panic is called on unresolvable fatal errors. it prints
 * "panic: 'message'", and then enters the kernel monitor.
 * */
void
__panic(const char *file, int line, const char *fmt, ...) {
  100cc6:	55                   	push   %ebp
  100cc7:	89 e5                	mov    %esp,%ebp
  100cc9:	83 ec 28             	sub    $0x28,%esp
    if (is_panic) {
  100ccc:	a1 60 7e 11 00       	mov    0x117e60,%eax
  100cd1:	85 c0                	test   %eax,%eax
  100cd3:	74 02                	je     100cd7 <__panic+0x11>
        goto panic_dead;
  100cd5:	eb 48                	jmp    100d1f <__panic+0x59>
    }
    is_panic = 1;
  100cd7:	c7 05 60 7e 11 00 01 	movl   $0x1,0x117e60
  100cde:	00 00 00 

    // print the 'message'
    va_list ap;
    va_start(ap, fmt);
  100ce1:	8d 45 14             	lea    0x14(%ebp),%eax
  100ce4:	89 45 f4             	mov    %eax,-0xc(%ebp)
    cprintf("kernel panic at %s:%d:\n    ", file, line);
  100ce7:	8b 45 0c             	mov    0xc(%ebp),%eax
  100cea:	89 44 24 08          	mov    %eax,0x8(%esp)
  100cee:	8b 45 08             	mov    0x8(%ebp),%eax
  100cf1:	89 44 24 04          	mov    %eax,0x4(%esp)
  100cf5:	c7 04 24 ba 61 10 00 	movl   $0x1061ba,(%esp)
  100cfc:	e8 3b f6 ff ff       	call   10033c <cprintf>
    vcprintf(fmt, ap);
  100d01:	8b 45 f4             	mov    -0xc(%ebp),%eax
  100d04:	89 44 24 04          	mov    %eax,0x4(%esp)
  100d08:	8b 45 10             	mov    0x10(%ebp),%eax
  100d0b:	89 04 24             	mov    %eax,(%esp)
  100d0e:	e8 f6 f5 ff ff       	call   100309 <vcprintf>
    cprintf("\n");
  100d13:	c7 04 24 d6 61 10 00 	movl   $0x1061d6,(%esp)
  100d1a:	e8 1d f6 ff ff       	call   10033c <cprintf>
    va_end(ap);

panic_dead:
    intr_disable();
  100d1f:	e8 85 09 00 00       	call   1016a9 <intr_disable>
    while (1) {
        kmonitor(NULL);
  100d24:	c7 04 24 00 00 00 00 	movl   $0x0,(%esp)
  100d2b:	e8 b5 fe ff ff       	call   100be5 <kmonitor>
    }
  100d30:	eb f2                	jmp    100d24 <__panic+0x5e>

00100d32 <__warn>:
}

/* __warn - like panic, but don't */
void
__warn(const char *file, int line, const char *fmt, ...) {
  100d32:	55                   	push   %ebp
  100d33:	89 e5                	mov    %esp,%ebp
  100d35:	83 ec 28             	sub    $0x28,%esp
    va_list ap;
    va_start(ap, fmt);
  100d38:	8d 45 14             	lea    0x14(%ebp),%eax
  100d3b:	89 45 f4             	mov    %eax,-0xc(%ebp)
    cprintf("kernel warning at %s:%d:\n    ", file, line);
  100d3e:	8b 45 0c             	mov    0xc(%ebp),%eax
  100d41:	89 44 24 08          	mov    %eax,0x8(%esp)
  100d45:	8b 45 08             	mov    0x8(%ebp),%eax
  100d48:	89 44 24 04          	mov    %eax,0x4(%esp)
  100d4c:	c7 04 24 d8 61 10 00 	movl   $0x1061d8,(%esp)
  100d53:	e8 e4 f5 ff ff       	call   10033c <cprintf>
    vcprintf(fmt, ap);
  100d58:	8b 45 f4             	mov    -0xc(%ebp),%eax
  100d5b:	89 44 24 04          	mov    %eax,0x4(%esp)
  100d5f:	8b 45 10             	mov    0x10(%ebp),%eax
  100d62:	89 04 24             	mov    %eax,(%esp)
  100d65:	e8 9f f5 ff ff       	call   100309 <vcprintf>
    cprintf("\n");
  100d6a:	c7 04 24 d6 61 10 00 	movl   $0x1061d6,(%esp)
  100d71:	e8 c6 f5 ff ff       	call   10033c <cprintf>
    va_end(ap);
}
  100d76:	c9                   	leave  
  100d77:	c3                   	ret    

00100d78 <is_kernel_panic>:

bool
is_kernel_panic(void) {
  100d78:	55                   	push   %ebp
  100d79:	89 e5                	mov    %esp,%ebp
    return is_panic;
  100d7b:	a1 60 7e 11 00       	mov    0x117e60,%eax
}
  100d80:	5d                   	pop    %ebp
  100d81:	c3                   	ret    

00100d82 <clock_init>:
/* *
 * clock_init - initialize 8253 clock to interrupt 100 times per second,
 * and then enable IRQ_TIMER.
 * */
void
clock_init(void) {
  100d82:	55                   	push   %ebp
  100d83:	89 e5                	mov    %esp,%ebp
  100d85:	83 ec 28             	sub    $0x28,%esp
  100d88:	66 c7 45 f6 43 00    	movw   $0x43,-0xa(%ebp)
  100d8e:	c6 45 f5 34          	movb   $0x34,-0xb(%ebp)
        : "memory", "cc");
}

static inline void
outb(uint16_t port, uint8_t data) {
    asm volatile ("outb %0, %1" :: "a" (data), "d" (port) : "memory");
  100d92:	0f b6 45 f5          	movzbl -0xb(%ebp),%eax
  100d96:	0f b7 55 f6          	movzwl -0xa(%ebp),%edx
  100d9a:	ee                   	out    %al,(%dx)
  100d9b:	66 c7 45 f2 40 00    	movw   $0x40,-0xe(%ebp)
  100da1:	c6 45 f1 9c          	movb   $0x9c,-0xf(%ebp)
  100da5:	0f b6 45 f1          	movzbl -0xf(%ebp),%eax
  100da9:	0f b7 55 f2          	movzwl -0xe(%ebp),%edx
  100dad:	ee                   	out    %al,(%dx)
  100dae:	66 c7 45 ee 40 00    	movw   $0x40,-0x12(%ebp)
  100db4:	c6 45 ed 2e          	movb   $0x2e,-0x13(%ebp)
  100db8:	0f b6 45 ed          	movzbl -0x13(%ebp),%eax
  100dbc:	0f b7 55 ee          	movzwl -0x12(%ebp),%edx
  100dc0:	ee                   	out    %al,(%dx)
    outb(TIMER_MODE, TIMER_SEL0 | TIMER_RATEGEN | TIMER_16BIT);
    outb(IO_TIMER1, TIMER_DIV(100) % 256);
    outb(IO_TIMER1, TIMER_DIV(100) / 256);

    // initialize time counter 'ticks' to zero
    ticks = 0;
  100dc1:	c7 05 4c 89 11 00 00 	movl   $0x0,0x11894c
  100dc8:	00 00 00 

    cprintf("++ setup timer interrupts\n");
  100dcb:	c7 04 24 f6 61 10 00 	movl   $0x1061f6,(%esp)
  100dd2:	e8 65 f5 ff ff       	call   10033c <cprintf>
    pic_enable(IRQ_TIMER);
  100dd7:	c7 04 24 00 00 00 00 	movl   $0x0,(%esp)
  100dde:	e8 24 09 00 00       	call   101707 <pic_enable>
}
  100de3:	c9                   	leave  
  100de4:	c3                   	ret    

00100de5 <__intr_save>:
#include <x86.h>
#include <intr.h>
#include <mmu.h>

static inline bool
__intr_save(void) {
  100de5:	55                   	push   %ebp
  100de6:	89 e5                	mov    %esp,%ebp
  100de8:	83 ec 18             	sub    $0x18,%esp
}

static inline uint32_t
read_eflags(void) {
    uint32_t eflags;
    asm volatile ("pushfl; popl %0" : "=r" (eflags));
  100deb:	9c                   	pushf  
  100dec:	58                   	pop    %eax
  100ded:	89 45 f4             	mov    %eax,-0xc(%ebp)
    return eflags;
  100df0:	8b 45 f4             	mov    -0xc(%ebp),%eax
    if (read_eflags() & FL_IF) {
  100df3:	25 00 02 00 00       	and    $0x200,%eax
  100df8:	85 c0                	test   %eax,%eax
  100dfa:	74 0c                	je     100e08 <__intr_save+0x23>
        intr_disable();
  100dfc:	e8 a8 08 00 00       	call   1016a9 <intr_disable>
        return 1;
  100e01:	b8 01 00 00 00       	mov    $0x1,%eax
  100e06:	eb 05                	jmp    100e0d <__intr_save+0x28>
    }
    return 0;
  100e08:	b8 00 00 00 00       	mov    $0x0,%eax
}
  100e0d:	c9                   	leave  
  100e0e:	c3                   	ret    

00100e0f <__intr_restore>:

static inline void
__intr_restore(bool flag) {
  100e0f:	55                   	push   %ebp
  100e10:	89 e5                	mov    %esp,%ebp
  100e12:	83 ec 08             	sub    $0x8,%esp
    if (flag) {
  100e15:	83 7d 08 00          	cmpl   $0x0,0x8(%ebp)
  100e19:	74 05                	je     100e20 <__intr_restore+0x11>
        intr_enable();
  100e1b:	e8 83 08 00 00       	call   1016a3 <intr_enable>
    }
}
  100e20:	c9                   	leave  
  100e21:	c3                   	ret    

00100e22 <delay>:
#include <memlayout.h>
#include <sync.h>

/* stupid I/O delay routine necessitated by historical PC design flaws */
static void
delay(void) {
  100e22:	55                   	push   %ebp
  100e23:	89 e5                	mov    %esp,%ebp
  100e25:	83 ec 10             	sub    $0x10,%esp
  100e28:	66 c7 45 fe 84 00    	movw   $0x84,-0x2(%ebp)
static inline void invlpg(void *addr) __attribute__((always_inline));

static inline uint8_t
inb(uint16_t port) {
    uint8_t data;
    asm volatile ("inb %1, %0" : "=a" (data) : "d" (port) : "memory");
  100e2e:	0f b7 45 fe          	movzwl -0x2(%ebp),%eax
  100e32:	89 c2                	mov    %eax,%edx
  100e34:	ec                   	in     (%dx),%al
  100e35:	88 45 fd             	mov    %al,-0x3(%ebp)
  100e38:	66 c7 45 fa 84 00    	movw   $0x84,-0x6(%ebp)
  100e3e:	0f b7 45 fa          	movzwl -0x6(%ebp),%eax
  100e42:	89 c2                	mov    %eax,%edx
  100e44:	ec                   	in     (%dx),%al
  100e45:	88 45 f9             	mov    %al,-0x7(%ebp)
  100e48:	66 c7 45 f6 84 00    	movw   $0x84,-0xa(%ebp)
  100e4e:	0f b7 45 f6          	movzwl -0xa(%ebp),%eax
  100e52:	89 c2                	mov    %eax,%edx
  100e54:	ec                   	in     (%dx),%al
  100e55:	88 45 f5             	mov    %al,-0xb(%ebp)
  100e58:	66 c7 45 f2 84 00    	movw   $0x84,-0xe(%ebp)
  100e5e:	0f b7 45 f2          	movzwl -0xe(%ebp),%eax
  100e62:	89 c2                	mov    %eax,%edx
  100e64:	ec                   	in     (%dx),%al
  100e65:	88 45 f1             	mov    %al,-0xf(%ebp)
    inb(0x84);
    inb(0x84);
    inb(0x84);
    inb(0x84);
}
  100e68:	c9                   	leave  
  100e69:	c3                   	ret    

00100e6a <cga_init>:
static uint16_t addr_6845;

/* TEXT-mode CGA/VGA display output */

static void
cga_init(void) {
  100e6a:	55                   	push   %ebp
  100e6b:	89 e5                	mov    %esp,%ebp
  100e6d:	83 ec 20             	sub    $0x20,%esp
    volatile uint16_t *cp = (uint16_t *)(CGA_BUF + KERNBASE);
  100e70:	c7 45 fc 00 80 0b c0 	movl   $0xc00b8000,-0x4(%ebp)
    uint16_t was = *cp;
  100e77:	8b 45 fc             	mov    -0x4(%ebp),%eax
  100e7a:	0f b7 00             	movzwl (%eax),%eax
  100e7d:	66 89 45 fa          	mov    %ax,-0x6(%ebp)
    *cp = (uint16_t) 0xA55A;
  100e81:	8b 45 fc             	mov    -0x4(%ebp),%eax
  100e84:	66 c7 00 5a a5       	movw   $0xa55a,(%eax)
    if (*cp != 0xA55A) {
  100e89:	8b 45 fc             	mov    -0x4(%ebp),%eax
  100e8c:	0f b7 00             	movzwl (%eax),%eax
  100e8f:	66 3d 5a a5          	cmp    $0xa55a,%ax
  100e93:	74 12                	je     100ea7 <cga_init+0x3d>
        cp = (uint16_t*)(MONO_BUF + KERNBASE);
  100e95:	c7 45 fc 00 00 0b c0 	movl   $0xc00b0000,-0x4(%ebp)
        addr_6845 = MONO_BASE;
  100e9c:	66 c7 05 86 7e 11 00 	movw   $0x3b4,0x117e86
  100ea3:	b4 03 
  100ea5:	eb 13                	jmp    100eba <cga_init+0x50>
    } else {
        *cp = was;
  100ea7:	8b 45 fc             	mov    -0x4(%ebp),%eax
  100eaa:	0f b7 55 fa          	movzwl -0x6(%ebp),%edx
  100eae:	66 89 10             	mov    %dx,(%eax)
        addr_6845 = CGA_BASE;
  100eb1:	66 c7 05 86 7e 11 00 	movw   $0x3d4,0x117e86
  100eb8:	d4 03 
    }

    // Extract cursor location
    uint32_t pos;
    outb(addr_6845, 14);
  100eba:	0f b7 05 86 7e 11 00 	movzwl 0x117e86,%eax
  100ec1:	0f b7 c0             	movzwl %ax,%eax
  100ec4:	66 89 45 f2          	mov    %ax,-0xe(%ebp)
  100ec8:	c6 45 f1 0e          	movb   $0xe,-0xf(%ebp)
        : "memory", "cc");
}

static inline void
outb(uint16_t port, uint8_t data) {
    asm volatile ("outb %0, %1" :: "a" (data), "d" (port) : "memory");
  100ecc:	0f b6 45 f1          	movzbl -0xf(%ebp),%eax
  100ed0:	0f b7 55 f2          	movzwl -0xe(%ebp),%edx
  100ed4:	ee                   	out    %al,(%dx)
    pos = inb(addr_6845 + 1) << 8;
  100ed5:	0f b7 05 86 7e 11 00 	movzwl 0x117e86,%eax
  100edc:	83 c0 01             	add    $0x1,%eax
  100edf:	0f b7 c0             	movzwl %ax,%eax
  100ee2:	66 89 45 ee          	mov    %ax,-0x12(%ebp)
static inline void invlpg(void *addr) __attribute__((always_inline));

static inline uint8_t
inb(uint16_t port) {
    uint8_t data;
    asm volatile ("inb %1, %0" : "=a" (data) : "d" (port) : "memory");
  100ee6:	0f b7 45 ee          	movzwl -0x12(%ebp),%eax
  100eea:	89 c2                	mov    %eax,%edx
  100eec:	ec                   	in     (%dx),%al
  100eed:	88 45 ed             	mov    %al,-0x13(%ebp)
    return data;
  100ef0:	0f b6 45 ed          	movzbl -0x13(%ebp),%eax
  100ef4:	0f b6 c0             	movzbl %al,%eax
  100ef7:	c1 e0 08             	shl    $0x8,%eax
  100efa:	89 45 f4             	mov    %eax,-0xc(%ebp)
    outb(addr_6845, 15);
  100efd:	0f b7 05 86 7e 11 00 	movzwl 0x117e86,%eax
  100f04:	0f b7 c0             	movzwl %ax,%eax
  100f07:	66 89 45 ea          	mov    %ax,-0x16(%ebp)
  100f0b:	c6 45 e9 0f          	movb   $0xf,-0x17(%ebp)
        : "memory", "cc");
}

static inline void
outb(uint16_t port, uint8_t data) {
    asm volatile ("outb %0, %1" :: "a" (data), "d" (port) : "memory");
  100f0f:	0f b6 45 e9          	movzbl -0x17(%ebp),%eax
  100f13:	0f b7 55 ea          	movzwl -0x16(%ebp),%edx
  100f17:	ee                   	out    %al,(%dx)
    pos |= inb(addr_6845 + 1);
  100f18:	0f b7 05 86 7e 11 00 	movzwl 0x117e86,%eax
  100f1f:	83 c0 01             	add    $0x1,%eax
  100f22:	0f b7 c0             	movzwl %ax,%eax
  100f25:	66 89 45 e6          	mov    %ax,-0x1a(%ebp)
static inline void invlpg(void *addr) __attribute__((always_inline));

static inline uint8_t
inb(uint16_t port) {
    uint8_t data;
    asm volatile ("inb %1, %0" : "=a" (data) : "d" (port) : "memory");
  100f29:	0f b7 45 e6          	movzwl -0x1a(%ebp),%eax
  100f2d:	89 c2                	mov    %eax,%edx
  100f2f:	ec                   	in     (%dx),%al
  100f30:	88 45 e5             	mov    %al,-0x1b(%ebp)
    return data;
  100f33:	0f b6 45 e5          	movzbl -0x1b(%ebp),%eax
  100f37:	0f b6 c0             	movzbl %al,%eax
  100f3a:	09 45 f4             	or     %eax,-0xc(%ebp)

    crt_buf = (uint16_t*) cp;
  100f3d:	8b 45 fc             	mov    -0x4(%ebp),%eax
  100f40:	a3 80 7e 11 00       	mov    %eax,0x117e80
    crt_pos = pos;
  100f45:	8b 45 f4             	mov    -0xc(%ebp),%eax
  100f48:	66 a3 84 7e 11 00    	mov    %ax,0x117e84
}
  100f4e:	c9                   	leave  
  100f4f:	c3                   	ret    

00100f50 <serial_init>:

static bool serial_exists = 0;

static void
serial_init(void) {
  100f50:	55                   	push   %ebp
  100f51:	89 e5                	mov    %esp,%ebp
  100f53:	83 ec 48             	sub    $0x48,%esp
  100f56:	66 c7 45 f6 fa 03    	movw   $0x3fa,-0xa(%ebp)
  100f5c:	c6 45 f5 00          	movb   $0x0,-0xb(%ebp)
        : "memory", "cc");
}

static inline void
outb(uint16_t port, uint8_t data) {
    asm volatile ("outb %0, %1" :: "a" (data), "d" (port) : "memory");
  100f60:	0f b6 45 f5          	movzbl -0xb(%ebp),%eax
  100f64:	0f b7 55 f6          	movzwl -0xa(%ebp),%edx
  100f68:	ee                   	out    %al,(%dx)
  100f69:	66 c7 45 f2 fb 03    	movw   $0x3fb,-0xe(%ebp)
  100f6f:	c6 45 f1 80          	movb   $0x80,-0xf(%ebp)
  100f73:	0f b6 45 f1          	movzbl -0xf(%ebp),%eax
  100f77:	0f b7 55 f2          	movzwl -0xe(%ebp),%edx
  100f7b:	ee                   	out    %al,(%dx)
  100f7c:	66 c7 45 ee f8 03    	movw   $0x3f8,-0x12(%ebp)
  100f82:	c6 45 ed 0c          	movb   $0xc,-0x13(%ebp)
  100f86:	0f b6 45 ed          	movzbl -0x13(%ebp),%eax
  100f8a:	0f b7 55 ee          	movzwl -0x12(%ebp),%edx
  100f8e:	ee                   	out    %al,(%dx)
  100f8f:	66 c7 45 ea f9 03    	movw   $0x3f9,-0x16(%ebp)
  100f95:	c6 45 e9 00          	movb   $0x0,-0x17(%ebp)
  100f99:	0f b6 45 e9          	movzbl -0x17(%ebp),%eax
  100f9d:	0f b7 55 ea          	movzwl -0x16(%ebp),%edx
  100fa1:	ee                   	out    %al,(%dx)
  100fa2:	66 c7 45 e6 fb 03    	movw   $0x3fb,-0x1a(%ebp)
  100fa8:	c6 45 e5 03          	movb   $0x3,-0x1b(%ebp)
  100fac:	0f b6 45 e5          	movzbl -0x1b(%ebp),%eax
  100fb0:	0f b7 55 e6          	movzwl -0x1a(%ebp),%edx
  100fb4:	ee                   	out    %al,(%dx)
  100fb5:	66 c7 45 e2 fc 03    	movw   $0x3fc,-0x1e(%ebp)
  100fbb:	c6 45 e1 00          	movb   $0x0,-0x1f(%ebp)
  100fbf:	0f b6 45 e1          	movzbl -0x1f(%ebp),%eax
  100fc3:	0f b7 55 e2          	movzwl -0x1e(%ebp),%edx
  100fc7:	ee                   	out    %al,(%dx)
  100fc8:	66 c7 45 de f9 03    	movw   $0x3f9,-0x22(%ebp)
  100fce:	c6 45 dd 01          	movb   $0x1,-0x23(%ebp)
  100fd2:	0f b6 45 dd          	movzbl -0x23(%ebp),%eax
  100fd6:	0f b7 55 de          	movzwl -0x22(%ebp),%edx
  100fda:	ee                   	out    %al,(%dx)
  100fdb:	66 c7 45 da fd 03    	movw   $0x3fd,-0x26(%ebp)
static inline void invlpg(void *addr) __attribute__((always_inline));

static inline uint8_t
inb(uint16_t port) {
    uint8_t data;
    asm volatile ("inb %1, %0" : "=a" (data) : "d" (port) : "memory");
  100fe1:	0f b7 45 da          	movzwl -0x26(%ebp),%eax
  100fe5:	89 c2                	mov    %eax,%edx
  100fe7:	ec                   	in     (%dx),%al
  100fe8:	88 45 d9             	mov    %al,-0x27(%ebp)
    return data;
  100feb:	0f b6 45 d9          	movzbl -0x27(%ebp),%eax
    // Enable rcv interrupts
    outb(COM1 + COM_IER, COM_IER_RDI);

    // Clear any preexisting overrun indications and interrupts
    // Serial port doesn't exist if COM_LSR returns 0xFF
    serial_exists = (inb(COM1 + COM_LSR) != 0xFF);
  100fef:	3c ff                	cmp    $0xff,%al
  100ff1:	0f 95 c0             	setne  %al
  100ff4:	0f b6 c0             	movzbl %al,%eax
  100ff7:	a3 88 7e 11 00       	mov    %eax,0x117e88
  100ffc:	66 c7 45 d6 fa 03    	movw   $0x3fa,-0x2a(%ebp)
static inline void invlpg(void *addr) __attribute__((always_inline));

static inline uint8_t
inb(uint16_t port) {
    uint8_t data;
    asm volatile ("inb %1, %0" : "=a" (data) : "d" (port) : "memory");
  101002:	0f b7 45 d6          	movzwl -0x2a(%ebp),%eax
  101006:	89 c2                	mov    %eax,%edx
  101008:	ec                   	in     (%dx),%al
  101009:	88 45 d5             	mov    %al,-0x2b(%ebp)
  10100c:	66 c7 45 d2 f8 03    	movw   $0x3f8,-0x2e(%ebp)
  101012:	0f b7 45 d2          	movzwl -0x2e(%ebp),%eax
  101016:	89 c2                	mov    %eax,%edx
  101018:	ec                   	in     (%dx),%al
  101019:	88 45 d1             	mov    %al,-0x2f(%ebp)
    (void) inb(COM1+COM_IIR);
    (void) inb(COM1+COM_RX);

    if (serial_exists) {
  10101c:	a1 88 7e 11 00       	mov    0x117e88,%eax
  101021:	85 c0                	test   %eax,%eax
  101023:	74 0c                	je     101031 <serial_init+0xe1>
        pic_enable(IRQ_COM1);
  101025:	c7 04 24 04 00 00 00 	movl   $0x4,(%esp)
  10102c:	e8 d6 06 00 00       	call   101707 <pic_enable>
    }
}
  101031:	c9                   	leave  
  101032:	c3                   	ret    

00101033 <lpt_putc_sub>:

static void
lpt_putc_sub(int c) {
  101033:	55                   	push   %ebp
  101034:	89 e5                	mov    %esp,%ebp
  101036:	83 ec 20             	sub    $0x20,%esp
    int i;
    for (i = 0; !(inb(LPTPORT + 1) & 0x80) && i < 12800; i ++) {
  101039:	c7 45 fc 00 00 00 00 	movl   $0x0,-0x4(%ebp)
  101040:	eb 09                	jmp    10104b <lpt_putc_sub+0x18>
        delay();
  101042:	e8 db fd ff ff       	call   100e22 <delay>
}

static void
lpt_putc_sub(int c) {
    int i;
    for (i = 0; !(inb(LPTPORT + 1) & 0x80) && i < 12800; i ++) {
  101047:	83 45 fc 01          	addl   $0x1,-0x4(%ebp)
  10104b:	66 c7 45 fa 79 03    	movw   $0x379,-0x6(%ebp)
  101051:	0f b7 45 fa          	movzwl -0x6(%ebp),%eax
  101055:	89 c2                	mov    %eax,%edx
  101057:	ec                   	in     (%dx),%al
  101058:	88 45 f9             	mov    %al,-0x7(%ebp)
    return data;
  10105b:	0f b6 45 f9          	movzbl -0x7(%ebp),%eax
  10105f:	84 c0                	test   %al,%al
  101061:	78 09                	js     10106c <lpt_putc_sub+0x39>
  101063:	81 7d fc ff 31 00 00 	cmpl   $0x31ff,-0x4(%ebp)
  10106a:	7e d6                	jle    101042 <lpt_putc_sub+0xf>
        delay();
    }
    outb(LPTPORT + 0, c);
  10106c:	8b 45 08             	mov    0x8(%ebp),%eax
  10106f:	0f b6 c0             	movzbl %al,%eax
  101072:	66 c7 45 f6 78 03    	movw   $0x378,-0xa(%ebp)
  101078:	88 45 f5             	mov    %al,-0xb(%ebp)
        : "memory", "cc");
}

static inline void
outb(uint16_t port, uint8_t data) {
    asm volatile ("outb %0, %1" :: "a" (data), "d" (port) : "memory");
  10107b:	0f b6 45 f5          	movzbl -0xb(%ebp),%eax
  10107f:	0f b7 55 f6          	movzwl -0xa(%ebp),%edx
  101083:	ee                   	out    %al,(%dx)
  101084:	66 c7 45 f2 7a 03    	movw   $0x37a,-0xe(%ebp)
  10108a:	c6 45 f1 0d          	movb   $0xd,-0xf(%ebp)
  10108e:	0f b6 45 f1          	movzbl -0xf(%ebp),%eax
  101092:	0f b7 55 f2          	movzwl -0xe(%ebp),%edx
  101096:	ee                   	out    %al,(%dx)
  101097:	66 c7 45 ee 7a 03    	movw   $0x37a,-0x12(%ebp)
  10109d:	c6 45 ed 08          	movb   $0x8,-0x13(%ebp)
  1010a1:	0f b6 45 ed          	movzbl -0x13(%ebp),%eax
  1010a5:	0f b7 55 ee          	movzwl -0x12(%ebp),%edx
  1010a9:	ee                   	out    %al,(%dx)
    outb(LPTPORT + 2, 0x08 | 0x04 | 0x01);
    outb(LPTPORT + 2, 0x08);
}
  1010aa:	c9                   	leave  
  1010ab:	c3                   	ret    

001010ac <lpt_putc>:

/* lpt_putc - copy console output to parallel port */
static void
lpt_putc(int c) {
  1010ac:	55                   	push   %ebp
  1010ad:	89 e5                	mov    %esp,%ebp
  1010af:	83 ec 04             	sub    $0x4,%esp
    if (c != '\b') {
  1010b2:	83 7d 08 08          	cmpl   $0x8,0x8(%ebp)
  1010b6:	74 0d                	je     1010c5 <lpt_putc+0x19>
        lpt_putc_sub(c);
  1010b8:	8b 45 08             	mov    0x8(%ebp),%eax
  1010bb:	89 04 24             	mov    %eax,(%esp)
  1010be:	e8 70 ff ff ff       	call   101033 <lpt_putc_sub>
  1010c3:	eb 24                	jmp    1010e9 <lpt_putc+0x3d>
    }
    else {
        lpt_putc_sub('\b');
  1010c5:	c7 04 24 08 00 00 00 	movl   $0x8,(%esp)
  1010cc:	e8 62 ff ff ff       	call   101033 <lpt_putc_sub>
        lpt_putc_sub(' ');
  1010d1:	c7 04 24 20 00 00 00 	movl   $0x20,(%esp)
  1010d8:	e8 56 ff ff ff       	call   101033 <lpt_putc_sub>
        lpt_putc_sub('\b');
  1010dd:	c7 04 24 08 00 00 00 	movl   $0x8,(%esp)
  1010e4:	e8 4a ff ff ff       	call   101033 <lpt_putc_sub>
    }
}
  1010e9:	c9                   	leave  
  1010ea:	c3                   	ret    

001010eb <cga_putc>:

/* cga_putc - print character to console */
static void
cga_putc(int c) {
  1010eb:	55                   	push   %ebp
  1010ec:	89 e5                	mov    %esp,%ebp
  1010ee:	53                   	push   %ebx
  1010ef:	83 ec 34             	sub    $0x34,%esp
    // set black on white
    if (!(c & ~0xFF)) {
  1010f2:	8b 45 08             	mov    0x8(%ebp),%eax
  1010f5:	b0 00                	mov    $0x0,%al
  1010f7:	85 c0                	test   %eax,%eax
  1010f9:	75 07                	jne    101102 <cga_putc+0x17>
        c |= 0x0700;
  1010fb:	81 4d 08 00 07 00 00 	orl    $0x700,0x8(%ebp)
    }

    switch (c & 0xff) {
  101102:	8b 45 08             	mov    0x8(%ebp),%eax
  101105:	0f b6 c0             	movzbl %al,%eax
  101108:	83 f8 0a             	cmp    $0xa,%eax
  10110b:	74 4c                	je     101159 <cga_putc+0x6e>
  10110d:	83 f8 0d             	cmp    $0xd,%eax
  101110:	74 57                	je     101169 <cga_putc+0x7e>
  101112:	83 f8 08             	cmp    $0x8,%eax
  101115:	0f 85 88 00 00 00    	jne    1011a3 <cga_putc+0xb8>
    case '\b':
        if (crt_pos > 0) {
  10111b:	0f b7 05 84 7e 11 00 	movzwl 0x117e84,%eax
  101122:	66 85 c0             	test   %ax,%ax
  101125:	74 30                	je     101157 <cga_putc+0x6c>
            crt_pos --;
  101127:	0f b7 05 84 7e 11 00 	movzwl 0x117e84,%eax
  10112e:	83 e8 01             	sub    $0x1,%eax
  101131:	66 a3 84 7e 11 00    	mov    %ax,0x117e84
            crt_buf[crt_pos] = (c & ~0xff) | ' ';
  101137:	a1 80 7e 11 00       	mov    0x117e80,%eax
  10113c:	0f b7 15 84 7e 11 00 	movzwl 0x117e84,%edx
  101143:	0f b7 d2             	movzwl %dx,%edx
  101146:	01 d2                	add    %edx,%edx
  101148:	01 c2                	add    %eax,%edx
  10114a:	8b 45 08             	mov    0x8(%ebp),%eax
  10114d:	b0 00                	mov    $0x0,%al
  10114f:	83 c8 20             	or     $0x20,%eax
  101152:	66 89 02             	mov    %ax,(%edx)
        }
        break;
  101155:	eb 72                	jmp    1011c9 <cga_putc+0xde>
  101157:	eb 70                	jmp    1011c9 <cga_putc+0xde>
    case '\n':
        crt_pos += CRT_COLS;
  101159:	0f b7 05 84 7e 11 00 	movzwl 0x117e84,%eax
  101160:	83 c0 50             	add    $0x50,%eax
  101163:	66 a3 84 7e 11 00    	mov    %ax,0x117e84
    case '\r':
        crt_pos -= (crt_pos % CRT_COLS);
  101169:	0f b7 1d 84 7e 11 00 	movzwl 0x117e84,%ebx
  101170:	0f b7 0d 84 7e 11 00 	movzwl 0x117e84,%ecx
  101177:	0f b7 c1             	movzwl %cx,%eax
  10117a:	69 c0 cd cc 00 00    	imul   $0xcccd,%eax,%eax
  101180:	c1 e8 10             	shr    $0x10,%eax
  101183:	89 c2                	mov    %eax,%edx
  101185:	66 c1 ea 06          	shr    $0x6,%dx
  101189:	89 d0                	mov    %edx,%eax
  10118b:	c1 e0 02             	shl    $0x2,%eax
  10118e:	01 d0                	add    %edx,%eax
  101190:	c1 e0 04             	shl    $0x4,%eax
  101193:	29 c1                	sub    %eax,%ecx
  101195:	89 ca                	mov    %ecx,%edx
  101197:	89 d8                	mov    %ebx,%eax
  101199:	29 d0                	sub    %edx,%eax
  10119b:	66 a3 84 7e 11 00    	mov    %ax,0x117e84
        break;
  1011a1:	eb 26                	jmp    1011c9 <cga_putc+0xde>
    default:
        crt_buf[crt_pos ++] = c;     // write the character
  1011a3:	8b 0d 80 7e 11 00    	mov    0x117e80,%ecx
  1011a9:	0f b7 05 84 7e 11 00 	movzwl 0x117e84,%eax
  1011b0:	8d 50 01             	lea    0x1(%eax),%edx
  1011b3:	66 89 15 84 7e 11 00 	mov    %dx,0x117e84
  1011ba:	0f b7 c0             	movzwl %ax,%eax
  1011bd:	01 c0                	add    %eax,%eax
  1011bf:	8d 14 01             	lea    (%ecx,%eax,1),%edx
  1011c2:	8b 45 08             	mov    0x8(%ebp),%eax
  1011c5:	66 89 02             	mov    %ax,(%edx)
        break;
  1011c8:	90                   	nop
    }

    // What is the purpose of this?
    if (crt_pos >= CRT_SIZE) {
  1011c9:	0f b7 05 84 7e 11 00 	movzwl 0x117e84,%eax
  1011d0:	66 3d cf 07          	cmp    $0x7cf,%ax
  1011d4:	76 5b                	jbe    101231 <cga_putc+0x146>
        int i;
        memmove(crt_buf, crt_buf + CRT_COLS, (CRT_SIZE - CRT_COLS) * sizeof(uint16_t));
  1011d6:	a1 80 7e 11 00       	mov    0x117e80,%eax
  1011db:	8d 90 a0 00 00 00    	lea    0xa0(%eax),%edx
  1011e1:	a1 80 7e 11 00       	mov    0x117e80,%eax
  1011e6:	c7 44 24 08 00 0f 00 	movl   $0xf00,0x8(%esp)
  1011ed:	00 
  1011ee:	89 54 24 04          	mov    %edx,0x4(%esp)
  1011f2:	89 04 24             	mov    %eax,(%esp)
  1011f5:	e8 7e 4b 00 00       	call   105d78 <memmove>
        for (i = CRT_SIZE - CRT_COLS; i < CRT_SIZE; i ++) {
  1011fa:	c7 45 f4 80 07 00 00 	movl   $0x780,-0xc(%ebp)
  101201:	eb 15                	jmp    101218 <cga_putc+0x12d>
            crt_buf[i] = 0x0700 | ' ';
  101203:	a1 80 7e 11 00       	mov    0x117e80,%eax
  101208:	8b 55 f4             	mov    -0xc(%ebp),%edx
  10120b:	01 d2                	add    %edx,%edx
  10120d:	01 d0                	add    %edx,%eax
  10120f:	66 c7 00 20 07       	movw   $0x720,(%eax)

    // What is the purpose of this?
    if (crt_pos >= CRT_SIZE) {
        int i;
        memmove(crt_buf, crt_buf + CRT_COLS, (CRT_SIZE - CRT_COLS) * sizeof(uint16_t));
        for (i = CRT_SIZE - CRT_COLS; i < CRT_SIZE; i ++) {
  101214:	83 45 f4 01          	addl   $0x1,-0xc(%ebp)
  101218:	81 7d f4 cf 07 00 00 	cmpl   $0x7cf,-0xc(%ebp)
  10121f:	7e e2                	jle    101203 <cga_putc+0x118>
            crt_buf[i] = 0x0700 | ' ';
        }
        crt_pos -= CRT_COLS;
  101221:	0f b7 05 84 7e 11 00 	movzwl 0x117e84,%eax
  101228:	83 e8 50             	sub    $0x50,%eax
  10122b:	66 a3 84 7e 11 00    	mov    %ax,0x117e84
    }

    // move that little blinky thing
    outb(addr_6845, 14);
  101231:	0f b7 05 86 7e 11 00 	movzwl 0x117e86,%eax
  101238:	0f b7 c0             	movzwl %ax,%eax
  10123b:	66 89 45 f2          	mov    %ax,-0xe(%ebp)
  10123f:	c6 45 f1 0e          	movb   $0xe,-0xf(%ebp)
  101243:	0f b6 45 f1          	movzbl -0xf(%ebp),%eax
  101247:	0f b7 55 f2          	movzwl -0xe(%ebp),%edx
  10124b:	ee                   	out    %al,(%dx)
    outb(addr_6845 + 1, crt_pos >> 8);
  10124c:	0f b7 05 84 7e 11 00 	movzwl 0x117e84,%eax
  101253:	66 c1 e8 08          	shr    $0x8,%ax
  101257:	0f b6 c0             	movzbl %al,%eax
  10125a:	0f b7 15 86 7e 11 00 	movzwl 0x117e86,%edx
  101261:	83 c2 01             	add    $0x1,%edx
  101264:	0f b7 d2             	movzwl %dx,%edx
  101267:	66 89 55 ee          	mov    %dx,-0x12(%ebp)
  10126b:	88 45 ed             	mov    %al,-0x13(%ebp)
  10126e:	0f b6 45 ed          	movzbl -0x13(%ebp),%eax
  101272:	0f b7 55 ee          	movzwl -0x12(%ebp),%edx
  101276:	ee                   	out    %al,(%dx)
    outb(addr_6845, 15);
  101277:	0f b7 05 86 7e 11 00 	movzwl 0x117e86,%eax
  10127e:	0f b7 c0             	movzwl %ax,%eax
  101281:	66 89 45 ea          	mov    %ax,-0x16(%ebp)
  101285:	c6 45 e9 0f          	movb   $0xf,-0x17(%ebp)
  101289:	0f b6 45 e9          	movzbl -0x17(%ebp),%eax
  10128d:	0f b7 55 ea          	movzwl -0x16(%ebp),%edx
  101291:	ee                   	out    %al,(%dx)
    outb(addr_6845 + 1, crt_pos);
  101292:	0f b7 05 84 7e 11 00 	movzwl 0x117e84,%eax
  101299:	0f b6 c0             	movzbl %al,%eax
  10129c:	0f b7 15 86 7e 11 00 	movzwl 0x117e86,%edx
  1012a3:	83 c2 01             	add    $0x1,%edx
  1012a6:	0f b7 d2             	movzwl %dx,%edx
  1012a9:	66 89 55 e6          	mov    %dx,-0x1a(%ebp)
  1012ad:	88 45 e5             	mov    %al,-0x1b(%ebp)
  1012b0:	0f b6 45 e5          	movzbl -0x1b(%ebp),%eax
  1012b4:	0f b7 55 e6          	movzwl -0x1a(%ebp),%edx
  1012b8:	ee                   	out    %al,(%dx)
}
  1012b9:	83 c4 34             	add    $0x34,%esp
  1012bc:	5b                   	pop    %ebx
  1012bd:	5d                   	pop    %ebp
  1012be:	c3                   	ret    

001012bf <serial_putc_sub>:

static void
serial_putc_sub(int c) {
  1012bf:	55                   	push   %ebp
  1012c0:	89 e5                	mov    %esp,%ebp
  1012c2:	83 ec 10             	sub    $0x10,%esp
    int i;
    for (i = 0; !(inb(COM1 + COM_LSR) & COM_LSR_TXRDY) && i < 12800; i ++) {
  1012c5:	c7 45 fc 00 00 00 00 	movl   $0x0,-0x4(%ebp)
  1012cc:	eb 09                	jmp    1012d7 <serial_putc_sub+0x18>
        delay();
  1012ce:	e8 4f fb ff ff       	call   100e22 <delay>
}

static void
serial_putc_sub(int c) {
    int i;
    for (i = 0; !(inb(COM1 + COM_LSR) & COM_LSR_TXRDY) && i < 12800; i ++) {
  1012d3:	83 45 fc 01          	addl   $0x1,-0x4(%ebp)
  1012d7:	66 c7 45 fa fd 03    	movw   $0x3fd,-0x6(%ebp)
static inline void invlpg(void *addr) __attribute__((always_inline));

static inline uint8_t
inb(uint16_t port) {
    uint8_t data;
    asm volatile ("inb %1, %0" : "=a" (data) : "d" (port) : "memory");
  1012dd:	0f b7 45 fa          	movzwl -0x6(%ebp),%eax
  1012e1:	89 c2                	mov    %eax,%edx
  1012e3:	ec                   	in     (%dx),%al
  1012e4:	88 45 f9             	mov    %al,-0x7(%ebp)
    return data;
  1012e7:	0f b6 45 f9          	movzbl -0x7(%ebp),%eax
  1012eb:	0f b6 c0             	movzbl %al,%eax
  1012ee:	83 e0 20             	and    $0x20,%eax
  1012f1:	85 c0                	test   %eax,%eax
  1012f3:	75 09                	jne    1012fe <serial_putc_sub+0x3f>
  1012f5:	81 7d fc ff 31 00 00 	cmpl   $0x31ff,-0x4(%ebp)
  1012fc:	7e d0                	jle    1012ce <serial_putc_sub+0xf>
        delay();
    }
    outb(COM1 + COM_TX, c);
  1012fe:	8b 45 08             	mov    0x8(%ebp),%eax
  101301:	0f b6 c0             	movzbl %al,%eax
  101304:	66 c7 45 f6 f8 03    	movw   $0x3f8,-0xa(%ebp)
  10130a:	88 45 f5             	mov    %al,-0xb(%ebp)
        : "memory", "cc");
}

static inline void
outb(uint16_t port, uint8_t data) {
    asm volatile ("outb %0, %1" :: "a" (data), "d" (port) : "memory");
  10130d:	0f b6 45 f5          	movzbl -0xb(%ebp),%eax
  101311:	0f b7 55 f6          	movzwl -0xa(%ebp),%edx
  101315:	ee                   	out    %al,(%dx)
}
  101316:	c9                   	leave  
  101317:	c3                   	ret    

00101318 <serial_putc>:

/* serial_putc - print character to serial port */
static void
serial_putc(int c) {
  101318:	55                   	push   %ebp
  101319:	89 e5                	mov    %esp,%ebp
  10131b:	83 ec 04             	sub    $0x4,%esp
    if (c != '\b') {
  10131e:	83 7d 08 08          	cmpl   $0x8,0x8(%ebp)
  101322:	74 0d                	je     101331 <serial_putc+0x19>
        serial_putc_sub(c);
  101324:	8b 45 08             	mov    0x8(%ebp),%eax
  101327:	89 04 24             	mov    %eax,(%esp)
  10132a:	e8 90 ff ff ff       	call   1012bf <serial_putc_sub>
  10132f:	eb 24                	jmp    101355 <serial_putc+0x3d>
    }
    else {
        serial_putc_sub('\b');
  101331:	c7 04 24 08 00 00 00 	movl   $0x8,(%esp)
  101338:	e8 82 ff ff ff       	call   1012bf <serial_putc_sub>
        serial_putc_sub(' ');
  10133d:	c7 04 24 20 00 00 00 	movl   $0x20,(%esp)
  101344:	e8 76 ff ff ff       	call   1012bf <serial_putc_sub>
        serial_putc_sub('\b');
  101349:	c7 04 24 08 00 00 00 	movl   $0x8,(%esp)
  101350:	e8 6a ff ff ff       	call   1012bf <serial_putc_sub>
    }
}
  101355:	c9                   	leave  
  101356:	c3                   	ret    

00101357 <cons_intr>:
/* *
 * cons_intr - called by device interrupt routines to feed input
 * characters into the circular console input buffer.
 * */
static void
cons_intr(int (*proc)(void)) {
  101357:	55                   	push   %ebp
  101358:	89 e5                	mov    %esp,%ebp
  10135a:	83 ec 18             	sub    $0x18,%esp
    int c;
    while ((c = (*proc)()) != -1) {
  10135d:	eb 33                	jmp    101392 <cons_intr+0x3b>
        if (c != 0) {
  10135f:	83 7d f4 00          	cmpl   $0x0,-0xc(%ebp)
  101363:	74 2d                	je     101392 <cons_intr+0x3b>
            cons.buf[cons.wpos ++] = c;
  101365:	a1 a4 80 11 00       	mov    0x1180a4,%eax
  10136a:	8d 50 01             	lea    0x1(%eax),%edx
  10136d:	89 15 a4 80 11 00    	mov    %edx,0x1180a4
  101373:	8b 55 f4             	mov    -0xc(%ebp),%edx
  101376:	88 90 a0 7e 11 00    	mov    %dl,0x117ea0(%eax)
            if (cons.wpos == CONSBUFSIZE) {
  10137c:	a1 a4 80 11 00       	mov    0x1180a4,%eax
  101381:	3d 00 02 00 00       	cmp    $0x200,%eax
  101386:	75 0a                	jne    101392 <cons_intr+0x3b>
                cons.wpos = 0;
  101388:	c7 05 a4 80 11 00 00 	movl   $0x0,0x1180a4
  10138f:	00 00 00 
 * characters into the circular console input buffer.
 * */
static void
cons_intr(int (*proc)(void)) {
    int c;
    while ((c = (*proc)()) != -1) {
  101392:	8b 45 08             	mov    0x8(%ebp),%eax
  101395:	ff d0                	call   *%eax
  101397:	89 45 f4             	mov    %eax,-0xc(%ebp)
  10139a:	83 7d f4 ff          	cmpl   $0xffffffff,-0xc(%ebp)
  10139e:	75 bf                	jne    10135f <cons_intr+0x8>
            if (cons.wpos == CONSBUFSIZE) {
                cons.wpos = 0;
            }
        }
    }
}
  1013a0:	c9                   	leave  
  1013a1:	c3                   	ret    

001013a2 <serial_proc_data>:

/* serial_proc_data - get data from serial port */
static int
serial_proc_data(void) {
  1013a2:	55                   	push   %ebp
  1013a3:	89 e5                	mov    %esp,%ebp
  1013a5:	83 ec 10             	sub    $0x10,%esp
  1013a8:	66 c7 45 fa fd 03    	movw   $0x3fd,-0x6(%ebp)
static inline void invlpg(void *addr) __attribute__((always_inline));

static inline uint8_t
inb(uint16_t port) {
    uint8_t data;
    asm volatile ("inb %1, %0" : "=a" (data) : "d" (port) : "memory");
  1013ae:	0f b7 45 fa          	movzwl -0x6(%ebp),%eax
  1013b2:	89 c2                	mov    %eax,%edx
  1013b4:	ec                   	in     (%dx),%al
  1013b5:	88 45 f9             	mov    %al,-0x7(%ebp)
    return data;
  1013b8:	0f b6 45 f9          	movzbl -0x7(%ebp),%eax
    if (!(inb(COM1 + COM_LSR) & COM_LSR_DATA)) {
  1013bc:	0f b6 c0             	movzbl %al,%eax
  1013bf:	83 e0 01             	and    $0x1,%eax
  1013c2:	85 c0                	test   %eax,%eax
  1013c4:	75 07                	jne    1013cd <serial_proc_data+0x2b>
        return -1;
  1013c6:	b8 ff ff ff ff       	mov    $0xffffffff,%eax
  1013cb:	eb 2a                	jmp    1013f7 <serial_proc_data+0x55>
  1013cd:	66 c7 45 f6 f8 03    	movw   $0x3f8,-0xa(%ebp)
static inline void invlpg(void *addr) __attribute__((always_inline));

static inline uint8_t
inb(uint16_t port) {
    uint8_t data;
    asm volatile ("inb %1, %0" : "=a" (data) : "d" (port) : "memory");
  1013d3:	0f b7 45 f6          	movzwl -0xa(%ebp),%eax
  1013d7:	89 c2                	mov    %eax,%edx
  1013d9:	ec                   	in     (%dx),%al
  1013da:	88 45 f5             	mov    %al,-0xb(%ebp)
    return data;
  1013dd:	0f b6 45 f5          	movzbl -0xb(%ebp),%eax
    }
    int c = inb(COM1 + COM_RX);
  1013e1:	0f b6 c0             	movzbl %al,%eax
  1013e4:	89 45 fc             	mov    %eax,-0x4(%ebp)
    if (c == 127) {
  1013e7:	83 7d fc 7f          	cmpl   $0x7f,-0x4(%ebp)
  1013eb:	75 07                	jne    1013f4 <serial_proc_data+0x52>
        c = '\b';
  1013ed:	c7 45 fc 08 00 00 00 	movl   $0x8,-0x4(%ebp)
    }
    return c;
  1013f4:	8b 45 fc             	mov    -0x4(%ebp),%eax
}
  1013f7:	c9                   	leave  
  1013f8:	c3                   	ret    

001013f9 <serial_intr>:

/* serial_intr - try to feed input characters from serial port */
void
serial_intr(void) {
  1013f9:	55                   	push   %ebp
  1013fa:	89 e5                	mov    %esp,%ebp
  1013fc:	83 ec 18             	sub    $0x18,%esp
    if (serial_exists) {
  1013ff:	a1 88 7e 11 00       	mov    0x117e88,%eax
  101404:	85 c0                	test   %eax,%eax
  101406:	74 0c                	je     101414 <serial_intr+0x1b>
        cons_intr(serial_proc_data);
  101408:	c7 04 24 a2 13 10 00 	movl   $0x1013a2,(%esp)
  10140f:	e8 43 ff ff ff       	call   101357 <cons_intr>
    }
}
  101414:	c9                   	leave  
  101415:	c3                   	ret    

00101416 <kbd_proc_data>:
 *
 * The kbd_proc_data() function gets data from the keyboard.
 * If we finish a character, return it, else 0. And return -1 if no data.
 * */
static int
kbd_proc_data(void) {
  101416:	55                   	push   %ebp
  101417:	89 e5                	mov    %esp,%ebp
  101419:	83 ec 38             	sub    $0x38,%esp
  10141c:	66 c7 45 f0 64 00    	movw   $0x64,-0x10(%ebp)
static inline void invlpg(void *addr) __attribute__((always_inline));

static inline uint8_t
inb(uint16_t port) {
    uint8_t data;
    asm volatile ("inb %1, %0" : "=a" (data) : "d" (port) : "memory");
  101422:	0f b7 45 f0          	movzwl -0x10(%ebp),%eax
  101426:	89 c2                	mov    %eax,%edx
  101428:	ec                   	in     (%dx),%al
  101429:	88 45 ef             	mov    %al,-0x11(%ebp)
    return data;
  10142c:	0f b6 45 ef          	movzbl -0x11(%ebp),%eax
    int c;
    uint8_t data;
    static uint32_t shift;

    if ((inb(KBSTATP) & KBS_DIB) == 0) {
  101430:	0f b6 c0             	movzbl %al,%eax
  101433:	83 e0 01             	and    $0x1,%eax
  101436:	85 c0                	test   %eax,%eax
  101438:	75 0a                	jne    101444 <kbd_proc_data+0x2e>
        return -1;
  10143a:	b8 ff ff ff ff       	mov    $0xffffffff,%eax
  10143f:	e9 59 01 00 00       	jmp    10159d <kbd_proc_data+0x187>
  101444:	66 c7 45 ec 60 00    	movw   $0x60,-0x14(%ebp)
static inline void invlpg(void *addr) __attribute__((always_inline));

static inline uint8_t
inb(uint16_t port) {
    uint8_t data;
    asm volatile ("inb %1, %0" : "=a" (data) : "d" (port) : "memory");
  10144a:	0f b7 45 ec          	movzwl -0x14(%ebp),%eax
  10144e:	89 c2                	mov    %eax,%edx
  101450:	ec                   	in     (%dx),%al
  101451:	88 45 eb             	mov    %al,-0x15(%ebp)
    return data;
  101454:	0f b6 45 eb          	movzbl -0x15(%ebp),%eax
    }

    data = inb(KBDATAP);
  101458:	88 45 f3             	mov    %al,-0xd(%ebp)

    if (data == 0xE0) {
  10145b:	80 7d f3 e0          	cmpb   $0xe0,-0xd(%ebp)
  10145f:	75 17                	jne    101478 <kbd_proc_data+0x62>
        // E0 escape character
        shift |= E0ESC;
  101461:	a1 a8 80 11 00       	mov    0x1180a8,%eax
  101466:	83 c8 40             	or     $0x40,%eax
  101469:	a3 a8 80 11 00       	mov    %eax,0x1180a8
        return 0;
  10146e:	b8 00 00 00 00       	mov    $0x0,%eax
  101473:	e9 25 01 00 00       	jmp    10159d <kbd_proc_data+0x187>
    } else if (data & 0x80) {
  101478:	0f b6 45 f3          	movzbl -0xd(%ebp),%eax
  10147c:	84 c0                	test   %al,%al
  10147e:	79 47                	jns    1014c7 <kbd_proc_data+0xb1>
        // Key released
        data = (shift & E0ESC ? data : data & 0x7F);
  101480:	a1 a8 80 11 00       	mov    0x1180a8,%eax
  101485:	83 e0 40             	and    $0x40,%eax
  101488:	85 c0                	test   %eax,%eax
  10148a:	75 09                	jne    101495 <kbd_proc_data+0x7f>
  10148c:	0f b6 45 f3          	movzbl -0xd(%ebp),%eax
  101490:	83 e0 7f             	and    $0x7f,%eax
  101493:	eb 04                	jmp    101499 <kbd_proc_data+0x83>
  101495:	0f b6 45 f3          	movzbl -0xd(%ebp),%eax
  101499:	88 45 f3             	mov    %al,-0xd(%ebp)
        shift &= ~(shiftcode[data] | E0ESC);
  10149c:	0f b6 45 f3          	movzbl -0xd(%ebp),%eax
  1014a0:	0f b6 80 60 70 11 00 	movzbl 0x117060(%eax),%eax
  1014a7:	83 c8 40             	or     $0x40,%eax
  1014aa:	0f b6 c0             	movzbl %al,%eax
  1014ad:	f7 d0                	not    %eax
  1014af:	89 c2                	mov    %eax,%edx
  1014b1:	a1 a8 80 11 00       	mov    0x1180a8,%eax
  1014b6:	21 d0                	and    %edx,%eax
  1014b8:	a3 a8 80 11 00       	mov    %eax,0x1180a8
        return 0;
  1014bd:	b8 00 00 00 00       	mov    $0x0,%eax
  1014c2:	e9 d6 00 00 00       	jmp    10159d <kbd_proc_data+0x187>
    } else if (shift & E0ESC) {
  1014c7:	a1 a8 80 11 00       	mov    0x1180a8,%eax
  1014cc:	83 e0 40             	and    $0x40,%eax
  1014cf:	85 c0                	test   %eax,%eax
  1014d1:	74 11                	je     1014e4 <kbd_proc_data+0xce>
        // Last character was an E0 escape; or with 0x80
        data |= 0x80;
  1014d3:	80 4d f3 80          	orb    $0x80,-0xd(%ebp)
        shift &= ~E0ESC;
  1014d7:	a1 a8 80 11 00       	mov    0x1180a8,%eax
  1014dc:	83 e0 bf             	and    $0xffffffbf,%eax
  1014df:	a3 a8 80 11 00       	mov    %eax,0x1180a8
    }

    shift |= shiftcode[data];
  1014e4:	0f b6 45 f3          	movzbl -0xd(%ebp),%eax
  1014e8:	0f b6 80 60 70 11 00 	movzbl 0x117060(%eax),%eax
  1014ef:	0f b6 d0             	movzbl %al,%edx
  1014f2:	a1 a8 80 11 00       	mov    0x1180a8,%eax
  1014f7:	09 d0                	or     %edx,%eax
  1014f9:	a3 a8 80 11 00       	mov    %eax,0x1180a8
    shift ^= togglecode[data];
  1014fe:	0f b6 45 f3          	movzbl -0xd(%ebp),%eax
  101502:	0f b6 80 60 71 11 00 	movzbl 0x117160(%eax),%eax
  101509:	0f b6 d0             	movzbl %al,%edx
  10150c:	a1 a8 80 11 00       	mov    0x1180a8,%eax
  101511:	31 d0                	xor    %edx,%eax
  101513:	a3 a8 80 11 00       	mov    %eax,0x1180a8

    c = charcode[shift & (CTL | SHIFT)][data];
  101518:	a1 a8 80 11 00       	mov    0x1180a8,%eax
  10151d:	83 e0 03             	and    $0x3,%eax
  101520:	8b 14 85 60 75 11 00 	mov    0x117560(,%eax,4),%edx
  101527:	0f b6 45 f3          	movzbl -0xd(%ebp),%eax
  10152b:	01 d0                	add    %edx,%eax
  10152d:	0f b6 00             	movzbl (%eax),%eax
  101530:	0f b6 c0             	movzbl %al,%eax
  101533:	89 45 f4             	mov    %eax,-0xc(%ebp)
    if (shift & CAPSLOCK) {
  101536:	a1 a8 80 11 00       	mov    0x1180a8,%eax
  10153b:	83 e0 08             	and    $0x8,%eax
  10153e:	85 c0                	test   %eax,%eax
  101540:	74 22                	je     101564 <kbd_proc_data+0x14e>
        if ('a' <= c && c <= 'z')
  101542:	83 7d f4 60          	cmpl   $0x60,-0xc(%ebp)
  101546:	7e 0c                	jle    101554 <kbd_proc_data+0x13e>
  101548:	83 7d f4 7a          	cmpl   $0x7a,-0xc(%ebp)
  10154c:	7f 06                	jg     101554 <kbd_proc_data+0x13e>
            c += 'A' - 'a';
  10154e:	83 6d f4 20          	subl   $0x20,-0xc(%ebp)
  101552:	eb 10                	jmp    101564 <kbd_proc_data+0x14e>
        else if ('A' <= c && c <= 'Z')
  101554:	83 7d f4 40          	cmpl   $0x40,-0xc(%ebp)
  101558:	7e 0a                	jle    101564 <kbd_proc_data+0x14e>
  10155a:	83 7d f4 5a          	cmpl   $0x5a,-0xc(%ebp)
  10155e:	7f 04                	jg     101564 <kbd_proc_data+0x14e>
            c += 'a' - 'A';
  101560:	83 45 f4 20          	addl   $0x20,-0xc(%ebp)
    }

    // Process special keys
    // Ctrl-Alt-Del: reboot
    if (!(~shift & (CTL | ALT)) && c == KEY_DEL) {
  101564:	a1 a8 80 11 00       	mov    0x1180a8,%eax
  101569:	f7 d0                	not    %eax
  10156b:	83 e0 06             	and    $0x6,%eax
  10156e:	85 c0                	test   %eax,%eax
  101570:	75 28                	jne    10159a <kbd_proc_data+0x184>
  101572:	81 7d f4 e9 00 00 00 	cmpl   $0xe9,-0xc(%ebp)
  101579:	75 1f                	jne    10159a <kbd_proc_data+0x184>
        cprintf("Rebooting!\n");
  10157b:	c7 04 24 11 62 10 00 	movl   $0x106211,(%esp)
  101582:	e8 b5 ed ff ff       	call   10033c <cprintf>
  101587:	66 c7 45 e8 92 00    	movw   $0x92,-0x18(%ebp)
  10158d:	c6 45 e7 03          	movb   $0x3,-0x19(%ebp)
        : "memory", "cc");
}

static inline void
outb(uint16_t port, uint8_t data) {
    asm volatile ("outb %0, %1" :: "a" (data), "d" (port) : "memory");
  101591:	0f b6 45 e7          	movzbl -0x19(%ebp),%eax
  101595:	0f b7 55 e8          	movzwl -0x18(%ebp),%edx
  101599:	ee                   	out    %al,(%dx)
        outb(0x92, 0x3); // courtesy of Chris Frost
    }
    return c;
  10159a:	8b 45 f4             	mov    -0xc(%ebp),%eax
}
  10159d:	c9                   	leave  
  10159e:	c3                   	ret    

0010159f <kbd_intr>:

/* kbd_intr - try to feed input characters from keyboard */
static void
kbd_intr(void) {
  10159f:	55                   	push   %ebp
  1015a0:	89 e5                	mov    %esp,%ebp
  1015a2:	83 ec 18             	sub    $0x18,%esp
    cons_intr(kbd_proc_data);
  1015a5:	c7 04 24 16 14 10 00 	movl   $0x101416,(%esp)
  1015ac:	e8 a6 fd ff ff       	call   101357 <cons_intr>
}
  1015b1:	c9                   	leave  
  1015b2:	c3                   	ret    

001015b3 <kbd_init>:

static void
kbd_init(void) {
  1015b3:	55                   	push   %ebp
  1015b4:	89 e5                	mov    %esp,%ebp
  1015b6:	83 ec 18             	sub    $0x18,%esp
    // drain the kbd buffer
    kbd_intr();
  1015b9:	e8 e1 ff ff ff       	call   10159f <kbd_intr>
    pic_enable(IRQ_KBD);
  1015be:	c7 04 24 01 00 00 00 	movl   $0x1,(%esp)
  1015c5:	e8 3d 01 00 00       	call   101707 <pic_enable>
}
  1015ca:	c9                   	leave  
  1015cb:	c3                   	ret    

001015cc <cons_init>:

/* cons_init - initializes the console devices */
void
cons_init(void) {
  1015cc:	55                   	push   %ebp
  1015cd:	89 e5                	mov    %esp,%ebp
  1015cf:	83 ec 18             	sub    $0x18,%esp
    cga_init();
  1015d2:	e8 93 f8 ff ff       	call   100e6a <cga_init>
    serial_init();
  1015d7:	e8 74 f9 ff ff       	call   100f50 <serial_init>
    kbd_init();
  1015dc:	e8 d2 ff ff ff       	call   1015b3 <kbd_init>
    if (!serial_exists) {
  1015e1:	a1 88 7e 11 00       	mov    0x117e88,%eax
  1015e6:	85 c0                	test   %eax,%eax
  1015e8:	75 0c                	jne    1015f6 <cons_init+0x2a>
        cprintf("serial port does not exist!!\n");
  1015ea:	c7 04 24 1d 62 10 00 	movl   $0x10621d,(%esp)
  1015f1:	e8 46 ed ff ff       	call   10033c <cprintf>
    }
}
  1015f6:	c9                   	leave  
  1015f7:	c3                   	ret    

001015f8 <cons_putc>:

/* cons_putc - print a single character @c to console devices */
void
cons_putc(int c) {
  1015f8:	55                   	push   %ebp
  1015f9:	89 e5                	mov    %esp,%ebp
  1015fb:	83 ec 28             	sub    $0x28,%esp
    bool intr_flag;
    local_intr_save(intr_flag);
  1015fe:	e8 e2 f7 ff ff       	call   100de5 <__intr_save>
  101603:	89 45 f4             	mov    %eax,-0xc(%ebp)
    {
        lpt_putc(c);
  101606:	8b 45 08             	mov    0x8(%ebp),%eax
  101609:	89 04 24             	mov    %eax,(%esp)
  10160c:	e8 9b fa ff ff       	call   1010ac <lpt_putc>
        cga_putc(c);
  101611:	8b 45 08             	mov    0x8(%ebp),%eax
  101614:	89 04 24             	mov    %eax,(%esp)
  101617:	e8 cf fa ff ff       	call   1010eb <cga_putc>
        serial_putc(c);
  10161c:	8b 45 08             	mov    0x8(%ebp),%eax
  10161f:	89 04 24             	mov    %eax,(%esp)
  101622:	e8 f1 fc ff ff       	call   101318 <serial_putc>
    }
    local_intr_restore(intr_flag);
  101627:	8b 45 f4             	mov    -0xc(%ebp),%eax
  10162a:	89 04 24             	mov    %eax,(%esp)
  10162d:	e8 dd f7 ff ff       	call   100e0f <__intr_restore>
}
  101632:	c9                   	leave  
  101633:	c3                   	ret    

00101634 <cons_getc>:
/* *
 * cons_getc - return the next input character from console,
 * or 0 if none waiting.
 * */
int
cons_getc(void) {
  101634:	55                   	push   %ebp
  101635:	89 e5                	mov    %esp,%ebp
  101637:	83 ec 28             	sub    $0x28,%esp
    int c = 0;
  10163a:	c7 45 f4 00 00 00 00 	movl   $0x0,-0xc(%ebp)
    bool intr_flag;
    local_intr_save(intr_flag);
  101641:	e8 9f f7 ff ff       	call   100de5 <__intr_save>
  101646:	89 45 f0             	mov    %eax,-0x10(%ebp)
    {
        // poll for any pending input characters,
        // so that this function works even when interrupts are disabled
        // (e.g., when called from the kernel monitor).
        serial_intr();
  101649:	e8 ab fd ff ff       	call   1013f9 <serial_intr>
        kbd_intr();
  10164e:	e8 4c ff ff ff       	call   10159f <kbd_intr>

        // grab the next character from the input buffer.
        if (cons.rpos != cons.wpos) {
  101653:	8b 15 a0 80 11 00    	mov    0x1180a0,%edx
  101659:	a1 a4 80 11 00       	mov    0x1180a4,%eax
  10165e:	39 c2                	cmp    %eax,%edx
  101660:	74 31                	je     101693 <cons_getc+0x5f>
            c = cons.buf[cons.rpos ++];
  101662:	a1 a0 80 11 00       	mov    0x1180a0,%eax
  101667:	8d 50 01             	lea    0x1(%eax),%edx
  10166a:	89 15 a0 80 11 00    	mov    %edx,0x1180a0
  101670:	0f b6 80 a0 7e 11 00 	movzbl 0x117ea0(%eax),%eax
  101677:	0f b6 c0             	movzbl %al,%eax
  10167a:	89 45 f4             	mov    %eax,-0xc(%ebp)
            if (cons.rpos == CONSBUFSIZE) {
  10167d:	a1 a0 80 11 00       	mov    0x1180a0,%eax
  101682:	3d 00 02 00 00       	cmp    $0x200,%eax
  101687:	75 0a                	jne    101693 <cons_getc+0x5f>
                cons.rpos = 0;
  101689:	c7 05 a0 80 11 00 00 	movl   $0x0,0x1180a0
  101690:	00 00 00 
            }
        }
    }
    local_intr_restore(intr_flag);
  101693:	8b 45 f0             	mov    -0x10(%ebp),%eax
  101696:	89 04 24             	mov    %eax,(%esp)
  101699:	e8 71 f7 ff ff       	call   100e0f <__intr_restore>
    return c;
  10169e:	8b 45 f4             	mov    -0xc(%ebp),%eax
}
  1016a1:	c9                   	leave  
  1016a2:	c3                   	ret    

001016a3 <intr_enable>:
#include <x86.h>
#include <intr.h>

/* intr_enable - enable irq interrupt */
void
intr_enable(void) {
  1016a3:	55                   	push   %ebp
  1016a4:	89 e5                	mov    %esp,%ebp
    asm volatile ("lidt (%0)" :: "r" (pd) : "memory");
}

static inline void
sti(void) {
    asm volatile ("sti");
  1016a6:	fb                   	sti    
    sti();
}
  1016a7:	5d                   	pop    %ebp
  1016a8:	c3                   	ret    

001016a9 <intr_disable>:

/* intr_disable - disable irq interrupt */
void
intr_disable(void) {
  1016a9:	55                   	push   %ebp
  1016aa:	89 e5                	mov    %esp,%ebp
}

static inline void
cli(void) {
    asm volatile ("cli" ::: "memory");
  1016ac:	fa                   	cli    
    cli();
}
  1016ad:	5d                   	pop    %ebp
  1016ae:	c3                   	ret    

001016af <pic_setmask>:
// Initial IRQ mask has interrupt 2 enabled (for slave 8259A).
static uint16_t irq_mask = 0xFFFF & ~(1 << IRQ_SLAVE);
static bool did_init = 0;

static void
pic_setmask(uint16_t mask) {
  1016af:	55                   	push   %ebp
  1016b0:	89 e5                	mov    %esp,%ebp
  1016b2:	83 ec 14             	sub    $0x14,%esp
  1016b5:	8b 45 08             	mov    0x8(%ebp),%eax
  1016b8:	66 89 45 ec          	mov    %ax,-0x14(%ebp)
    irq_mask = mask;
  1016bc:	0f b7 45 ec          	movzwl -0x14(%ebp),%eax
  1016c0:	66 a3 70 75 11 00    	mov    %ax,0x117570
    if (did_init) {
  1016c6:	a1 ac 80 11 00       	mov    0x1180ac,%eax
  1016cb:	85 c0                	test   %eax,%eax
  1016cd:	74 36                	je     101705 <pic_setmask+0x56>
        outb(IO_PIC1 + 1, mask);
  1016cf:	0f b7 45 ec          	movzwl -0x14(%ebp),%eax
  1016d3:	0f b6 c0             	movzbl %al,%eax
  1016d6:	66 c7 45 fe 21 00    	movw   $0x21,-0x2(%ebp)
  1016dc:	88 45 fd             	mov    %al,-0x3(%ebp)
        : "memory", "cc");
}

static inline void
outb(uint16_t port, uint8_t data) {
    asm volatile ("outb %0, %1" :: "a" (data), "d" (port) : "memory");
  1016df:	0f b6 45 fd          	movzbl -0x3(%ebp),%eax
  1016e3:	0f b7 55 fe          	movzwl -0x2(%ebp),%edx
  1016e7:	ee                   	out    %al,(%dx)
        outb(IO_PIC2 + 1, mask >> 8);
  1016e8:	0f b7 45 ec          	movzwl -0x14(%ebp),%eax
  1016ec:	66 c1 e8 08          	shr    $0x8,%ax
  1016f0:	0f b6 c0             	movzbl %al,%eax
  1016f3:	66 c7 45 fa a1 00    	movw   $0xa1,-0x6(%ebp)
  1016f9:	88 45 f9             	mov    %al,-0x7(%ebp)
  1016fc:	0f b6 45 f9          	movzbl -0x7(%ebp),%eax
  101700:	0f b7 55 fa          	movzwl -0x6(%ebp),%edx
  101704:	ee                   	out    %al,(%dx)
    }
}
  101705:	c9                   	leave  
  101706:	c3                   	ret    

00101707 <pic_enable>:

void
pic_enable(unsigned int irq) {
  101707:	55                   	push   %ebp
  101708:	89 e5                	mov    %esp,%ebp
  10170a:	83 ec 04             	sub    $0x4,%esp
    pic_setmask(irq_mask & ~(1 << irq));
  10170d:	8b 45 08             	mov    0x8(%ebp),%eax
  101710:	ba 01 00 00 00       	mov    $0x1,%edx
  101715:	89 c1                	mov    %eax,%ecx
  101717:	d3 e2                	shl    %cl,%edx
  101719:	89 d0                	mov    %edx,%eax
  10171b:	f7 d0                	not    %eax
  10171d:	89 c2                	mov    %eax,%edx
  10171f:	0f b7 05 70 75 11 00 	movzwl 0x117570,%eax
  101726:	21 d0                	and    %edx,%eax
  101728:	0f b7 c0             	movzwl %ax,%eax
  10172b:	89 04 24             	mov    %eax,(%esp)
  10172e:	e8 7c ff ff ff       	call   1016af <pic_setmask>
}
  101733:	c9                   	leave  
  101734:	c3                   	ret    

00101735 <pic_init>:

/* pic_init - initialize the 8259A interrupt controllers */
void
pic_init(void) {
  101735:	55                   	push   %ebp
  101736:	89 e5                	mov    %esp,%ebp
  101738:	83 ec 44             	sub    $0x44,%esp
    did_init = 1;
  10173b:	c7 05 ac 80 11 00 01 	movl   $0x1,0x1180ac
  101742:	00 00 00 
  101745:	66 c7 45 fe 21 00    	movw   $0x21,-0x2(%ebp)
  10174b:	c6 45 fd ff          	movb   $0xff,-0x3(%ebp)
  10174f:	0f b6 45 fd          	movzbl -0x3(%ebp),%eax
  101753:	0f b7 55 fe          	movzwl -0x2(%ebp),%edx
  101757:	ee                   	out    %al,(%dx)
  101758:	66 c7 45 fa a1 00    	movw   $0xa1,-0x6(%ebp)
  10175e:	c6 45 f9 ff          	movb   $0xff,-0x7(%ebp)
  101762:	0f b6 45 f9          	movzbl -0x7(%ebp),%eax
  101766:	0f b7 55 fa          	movzwl -0x6(%ebp),%edx
  10176a:	ee                   	out    %al,(%dx)
  10176b:	66 c7 45 f6 20 00    	movw   $0x20,-0xa(%ebp)
  101771:	c6 45 f5 11          	movb   $0x11,-0xb(%ebp)
  101775:	0f b6 45 f5          	movzbl -0xb(%ebp),%eax
  101779:	0f b7 55 f6          	movzwl -0xa(%ebp),%edx
  10177d:	ee                   	out    %al,(%dx)
  10177e:	66 c7 45 f2 21 00    	movw   $0x21,-0xe(%ebp)
  101784:	c6 45 f1 20          	movb   $0x20,-0xf(%ebp)
  101788:	0f b6 45 f1          	movzbl -0xf(%ebp),%eax
  10178c:	0f b7 55 f2          	movzwl -0xe(%ebp),%edx
  101790:	ee                   	out    %al,(%dx)
  101791:	66 c7 45 ee 21 00    	movw   $0x21,-0x12(%ebp)
  101797:	c6 45 ed 04          	movb   $0x4,-0x13(%ebp)
  10179b:	0f b6 45 ed          	movzbl -0x13(%ebp),%eax
  10179f:	0f b7 55 ee          	movzwl -0x12(%ebp),%edx
  1017a3:	ee                   	out    %al,(%dx)
  1017a4:	66 c7 45 ea 21 00    	movw   $0x21,-0x16(%ebp)
  1017aa:	c6 45 e9 03          	movb   $0x3,-0x17(%ebp)
  1017ae:	0f b6 45 e9          	movzbl -0x17(%ebp),%eax
  1017b2:	0f b7 55 ea          	movzwl -0x16(%ebp),%edx
  1017b6:	ee                   	out    %al,(%dx)
  1017b7:	66 c7 45 e6 a0 00    	movw   $0xa0,-0x1a(%ebp)
  1017bd:	c6 45 e5 11          	movb   $0x11,-0x1b(%ebp)
  1017c1:	0f b6 45 e5          	movzbl -0x1b(%ebp),%eax
  1017c5:	0f b7 55 e6          	movzwl -0x1a(%ebp),%edx
  1017c9:	ee                   	out    %al,(%dx)
  1017ca:	66 c7 45 e2 a1 00    	movw   $0xa1,-0x1e(%ebp)
  1017d0:	c6 45 e1 28          	movb   $0x28,-0x1f(%ebp)
  1017d4:	0f b6 45 e1          	movzbl -0x1f(%ebp),%eax
  1017d8:	0f b7 55 e2          	movzwl -0x1e(%ebp),%edx
  1017dc:	ee                   	out    %al,(%dx)
  1017dd:	66 c7 45 de a1 00    	movw   $0xa1,-0x22(%ebp)
  1017e3:	c6 45 dd 02          	movb   $0x2,-0x23(%ebp)
  1017e7:	0f b6 45 dd          	movzbl -0x23(%ebp),%eax
  1017eb:	0f b7 55 de          	movzwl -0x22(%ebp),%edx
  1017ef:	ee                   	out    %al,(%dx)
  1017f0:	66 c7 45 da a1 00    	movw   $0xa1,-0x26(%ebp)
  1017f6:	c6 45 d9 03          	movb   $0x3,-0x27(%ebp)
  1017fa:	0f b6 45 d9          	movzbl -0x27(%ebp),%eax
  1017fe:	0f b7 55 da          	movzwl -0x26(%ebp),%edx
  101802:	ee                   	out    %al,(%dx)
  101803:	66 c7 45 d6 20 00    	movw   $0x20,-0x2a(%ebp)
  101809:	c6 45 d5 68          	movb   $0x68,-0x2b(%ebp)
  10180d:	0f b6 45 d5          	movzbl -0x2b(%ebp),%eax
  101811:	0f b7 55 d6          	movzwl -0x2a(%ebp),%edx
  101815:	ee                   	out    %al,(%dx)
  101816:	66 c7 45 d2 20 00    	movw   $0x20,-0x2e(%ebp)
  10181c:	c6 45 d1 0a          	movb   $0xa,-0x2f(%ebp)
  101820:	0f b6 45 d1          	movzbl -0x2f(%ebp),%eax
  101824:	0f b7 55 d2          	movzwl -0x2e(%ebp),%edx
  101828:	ee                   	out    %al,(%dx)
  101829:	66 c7 45 ce a0 00    	movw   $0xa0,-0x32(%ebp)
  10182f:	c6 45 cd 68          	movb   $0x68,-0x33(%ebp)
  101833:	0f b6 45 cd          	movzbl -0x33(%ebp),%eax
  101837:	0f b7 55 ce          	movzwl -0x32(%ebp),%edx
  10183b:	ee                   	out    %al,(%dx)
  10183c:	66 c7 45 ca a0 00    	movw   $0xa0,-0x36(%ebp)
  101842:	c6 45 c9 0a          	movb   $0xa,-0x37(%ebp)
  101846:	0f b6 45 c9          	movzbl -0x37(%ebp),%eax
  10184a:	0f b7 55 ca          	movzwl -0x36(%ebp),%edx
  10184e:	ee                   	out    %al,(%dx)
    outb(IO_PIC1, 0x0a);    // read IRR by default

    outb(IO_PIC2, 0x68);    // OCW3
    outb(IO_PIC2, 0x0a);    // OCW3

    if (irq_mask != 0xFFFF) {
  10184f:	0f b7 05 70 75 11 00 	movzwl 0x117570,%eax
  101856:	66 83 f8 ff          	cmp    $0xffff,%ax
  10185a:	74 12                	je     10186e <pic_init+0x139>
        pic_setmask(irq_mask);
  10185c:	0f b7 05 70 75 11 00 	movzwl 0x117570,%eax
  101863:	0f b7 c0             	movzwl %ax,%eax
  101866:	89 04 24             	mov    %eax,(%esp)
  101869:	e8 41 fe ff ff       	call   1016af <pic_setmask>
    }
}
  10186e:	c9                   	leave  
  10186f:	c3                   	ret    

00101870 <print_ticks>:
#include <console.h>
#include <kdebug.h>

#define TICK_NUM 100

static void print_ticks() {
  101870:	55                   	push   %ebp
  101871:	89 e5                	mov    %esp,%ebp
  101873:	83 ec 18             	sub    $0x18,%esp
    cprintf("%d ticks\n",TICK_NUM);
  101876:	c7 44 24 04 64 00 00 	movl   $0x64,0x4(%esp)
  10187d:	00 
  10187e:	c7 04 24 40 62 10 00 	movl   $0x106240,(%esp)
  101885:	e8 b2 ea ff ff       	call   10033c <cprintf>
#ifdef DEBUG_GRADE
    cprintf("End of Test.\n");
    panic("EOT: kernel seems ok.");
#endif
}
  10188a:	c9                   	leave  
  10188b:	c3                   	ret    

0010188c <idt_init>:
    sizeof(idt) - 1, (uintptr_t)idt
};

/* idt_init - initialize IDT to each of the entry points in kern/trap/vectors.S */
void
idt_init(void) {
  10188c:	55                   	push   %ebp
  10188d:	89 e5                	mov    %esp,%ebp
  10188f:	83 ec 10             	sub    $0x10,%esp
      *     You don't know the meaning of this instruction? just google it! and check the libs/x86.h to know more.
      *     Notice: the argument of lidt is idt_pd. try to find it!
      */
	      extern uintptr_t __vectors[];
		  int i;
		  for (i=0; i < sizeof(idt)/ sizeof(struct gatedesc); i ++) {
  101892:	c7 45 fc 00 00 00 00 	movl   $0x0,-0x4(%ebp)
  101899:	e9 c3 00 00 00       	jmp    101961 <idt_init+0xd5>
		      SETGATE(idt[i], 0, GD_KTEXT, __vectors[i], DPL_KERNEL);
  10189e:	8b 45 fc             	mov    -0x4(%ebp),%eax
  1018a1:	8b 04 85 00 76 11 00 	mov    0x117600(,%eax,4),%eax
  1018a8:	89 c2                	mov    %eax,%edx
  1018aa:	8b 45 fc             	mov    -0x4(%ebp),%eax
  1018ad:	66 89 14 c5 c0 80 11 	mov    %dx,0x1180c0(,%eax,8)
  1018b4:	00 
  1018b5:	8b 45 fc             	mov    -0x4(%ebp),%eax
  1018b8:	66 c7 04 c5 c2 80 11 	movw   $0x8,0x1180c2(,%eax,8)
  1018bf:	00 08 00 
  1018c2:	8b 45 fc             	mov    -0x4(%ebp),%eax
  1018c5:	0f b6 14 c5 c4 80 11 	movzbl 0x1180c4(,%eax,8),%edx
  1018cc:	00 
  1018cd:	83 e2 e0             	and    $0xffffffe0,%edx
  1018d0:	88 14 c5 c4 80 11 00 	mov    %dl,0x1180c4(,%eax,8)
  1018d7:	8b 45 fc             	mov    -0x4(%ebp),%eax
  1018da:	0f b6 14 c5 c4 80 11 	movzbl 0x1180c4(,%eax,8),%edx
  1018e1:	00 
  1018e2:	83 e2 1f             	and    $0x1f,%edx
  1018e5:	88 14 c5 c4 80 11 00 	mov    %dl,0x1180c4(,%eax,8)
  1018ec:	8b 45 fc             	mov    -0x4(%ebp),%eax
  1018ef:	0f b6 14 c5 c5 80 11 	movzbl 0x1180c5(,%eax,8),%edx
  1018f6:	00 
  1018f7:	83 e2 f0             	and    $0xfffffff0,%edx
  1018fa:	83 ca 0e             	or     $0xe,%edx
  1018fd:	88 14 c5 c5 80 11 00 	mov    %dl,0x1180c5(,%eax,8)
  101904:	8b 45 fc             	mov    -0x4(%ebp),%eax
  101907:	0f b6 14 c5 c5 80 11 	movzbl 0x1180c5(,%eax,8),%edx
  10190e:	00 
  10190f:	83 e2 ef             	and    $0xffffffef,%edx
  101912:	88 14 c5 c5 80 11 00 	mov    %dl,0x1180c5(,%eax,8)
  101919:	8b 45 fc             	mov    -0x4(%ebp),%eax
  10191c:	0f b6 14 c5 c5 80 11 	movzbl 0x1180c5(,%eax,8),%edx
  101923:	00 
  101924:	83 e2 9f             	and    $0xffffff9f,%edx
  101927:	88 14 c5 c5 80 11 00 	mov    %dl,0x1180c5(,%eax,8)
  10192e:	8b 45 fc             	mov    -0x4(%ebp),%eax
  101931:	0f b6 14 c5 c5 80 11 	movzbl 0x1180c5(,%eax,8),%edx
  101938:	00 
  101939:	83 ca 80             	or     $0xffffff80,%edx
  10193c:	88 14 c5 c5 80 11 00 	mov    %dl,0x1180c5(,%eax,8)
  101943:	8b 45 fc             	mov    -0x4(%ebp),%eax
  101946:	8b 04 85 00 76 11 00 	mov    0x117600(,%eax,4),%eax
  10194d:	c1 e8 10             	shr    $0x10,%eax
  101950:	89 c2                	mov    %eax,%edx
  101952:	8b 45 fc             	mov    -0x4(%ebp),%eax
  101955:	66 89 14 c5 c6 80 11 	mov    %dx,0x1180c6(,%eax,8)
  10195c:	00 
      *     You don't know the meaning of this instruction? just google it! and check the libs/x86.h to know more.
      *     Notice: the argument of lidt is idt_pd. try to find it!
      */
	      extern uintptr_t __vectors[];
		  int i;
		  for (i=0; i < sizeof(idt)/ sizeof(struct gatedesc); i ++) {
  10195d:	83 45 fc 01          	addl   $0x1,-0x4(%ebp)
  101961:	8b 45 fc             	mov    -0x4(%ebp),%eax
  101964:	3d ff 00 00 00       	cmp    $0xff,%eax
  101969:	0f 86 2f ff ff ff    	jbe    10189e <idt_init+0x12>
		      SETGATE(idt[i], 0, GD_KTEXT, __vectors[i], DPL_KERNEL);
		  }
		  SETGATE(idt[T_SWITCH_TOK], 0, GD_KTEXT, __vectors[T_SWITCH_TOK], DPL_USER);
  10196f:	a1 e4 77 11 00       	mov    0x1177e4,%eax
  101974:	66 a3 88 84 11 00    	mov    %ax,0x118488
  10197a:	66 c7 05 8a 84 11 00 	movw   $0x8,0x11848a
  101981:	08 00 
  101983:	0f b6 05 8c 84 11 00 	movzbl 0x11848c,%eax
  10198a:	83 e0 e0             	and    $0xffffffe0,%eax
  10198d:	a2 8c 84 11 00       	mov    %al,0x11848c
  101992:	0f b6 05 8c 84 11 00 	movzbl 0x11848c,%eax
  101999:	83 e0 1f             	and    $0x1f,%eax
  10199c:	a2 8c 84 11 00       	mov    %al,0x11848c
  1019a1:	0f b6 05 8d 84 11 00 	movzbl 0x11848d,%eax
  1019a8:	83 e0 f0             	and    $0xfffffff0,%eax
  1019ab:	83 c8 0e             	or     $0xe,%eax
  1019ae:	a2 8d 84 11 00       	mov    %al,0x11848d
  1019b3:	0f b6 05 8d 84 11 00 	movzbl 0x11848d,%eax
  1019ba:	83 e0 ef             	and    $0xffffffef,%eax
  1019bd:	a2 8d 84 11 00       	mov    %al,0x11848d
  1019c2:	0f b6 05 8d 84 11 00 	movzbl 0x11848d,%eax
  1019c9:	83 c8 60             	or     $0x60,%eax
  1019cc:	a2 8d 84 11 00       	mov    %al,0x11848d
  1019d1:	0f b6 05 8d 84 11 00 	movzbl 0x11848d,%eax
  1019d8:	83 c8 80             	or     $0xffffff80,%eax
  1019db:	a2 8d 84 11 00       	mov    %al,0x11848d
  1019e0:	a1 e4 77 11 00       	mov    0x1177e4,%eax
  1019e5:	c1 e8 10             	shr    $0x10,%eax
  1019e8:	66 a3 8e 84 11 00    	mov    %ax,0x11848e
  1019ee:	c7 45 f8 80 75 11 00 	movl   $0x117580,-0x8(%ebp)
    }
}

static inline void
lidt(struct pseudodesc *pd) {
    asm volatile ("lidt (%0)" :: "r" (pd) : "memory");
  1019f5:	8b 45 f8             	mov    -0x8(%ebp),%eax
  1019f8:	0f 01 18             	lidtl  (%eax)
		  lidt(&idt_pd);
}
  1019fb:	c9                   	leave  
  1019fc:	c3                   	ret    

001019fd <trapname>:

static const char *
trapname(int trapno) {
  1019fd:	55                   	push   %ebp
  1019fe:	89 e5                	mov    %esp,%ebp
        "Alignment Check",
        "Machine-Check",
        "SIMD Floating-Point Exception"
    };

    if (trapno < sizeof(excnames)/sizeof(const char * const)) {
  101a00:	8b 45 08             	mov    0x8(%ebp),%eax
  101a03:	83 f8 13             	cmp    $0x13,%eax
  101a06:	77 0c                	ja     101a14 <trapname+0x17>
        return excnames[trapno];
  101a08:	8b 45 08             	mov    0x8(%ebp),%eax
  101a0b:	8b 04 85 a0 65 10 00 	mov    0x1065a0(,%eax,4),%eax
  101a12:	eb 18                	jmp    101a2c <trapname+0x2f>
    }
    if (trapno >= IRQ_OFFSET && trapno < IRQ_OFFSET + 16) {
  101a14:	83 7d 08 1f          	cmpl   $0x1f,0x8(%ebp)
  101a18:	7e 0d                	jle    101a27 <trapname+0x2a>
  101a1a:	83 7d 08 2f          	cmpl   $0x2f,0x8(%ebp)
  101a1e:	7f 07                	jg     101a27 <trapname+0x2a>
        return "Hardware Interrupt";
  101a20:	b8 4a 62 10 00       	mov    $0x10624a,%eax
  101a25:	eb 05                	jmp    101a2c <trapname+0x2f>
    }
    return "(unknown trap)";
  101a27:	b8 5d 62 10 00       	mov    $0x10625d,%eax
}
  101a2c:	5d                   	pop    %ebp
  101a2d:	c3                   	ret    

00101a2e <trap_in_kernel>:

/* trap_in_kernel - test if trap happened in kernel */
bool
trap_in_kernel(struct trapframe *tf) {
  101a2e:	55                   	push   %ebp
  101a2f:	89 e5                	mov    %esp,%ebp
    return (tf->tf_cs == (uint16_t)KERNEL_CS);
  101a31:	8b 45 08             	mov    0x8(%ebp),%eax
  101a34:	0f b7 40 3c          	movzwl 0x3c(%eax),%eax
  101a38:	66 83 f8 08          	cmp    $0x8,%ax
  101a3c:	0f 94 c0             	sete   %al
  101a3f:	0f b6 c0             	movzbl %al,%eax
}
  101a42:	5d                   	pop    %ebp
  101a43:	c3                   	ret    

00101a44 <print_trapframe>:
    "TF", "IF", "DF", "OF", NULL, NULL, "NT", NULL,
    "RF", "VM", "AC", "VIF", "VIP", "ID", NULL, NULL,
};

void
print_trapframe(struct trapframe *tf) {
  101a44:	55                   	push   %ebp
  101a45:	89 e5                	mov    %esp,%ebp
  101a47:	83 ec 28             	sub    $0x28,%esp
    cprintf("trapframe at %p\n", tf);
  101a4a:	8b 45 08             	mov    0x8(%ebp),%eax
  101a4d:	89 44 24 04          	mov    %eax,0x4(%esp)
  101a51:	c7 04 24 9e 62 10 00 	movl   $0x10629e,(%esp)
  101a58:	e8 df e8 ff ff       	call   10033c <cprintf>
    print_regs(&tf->tf_regs);
  101a5d:	8b 45 08             	mov    0x8(%ebp),%eax
  101a60:	89 04 24             	mov    %eax,(%esp)
  101a63:	e8 a1 01 00 00       	call   101c09 <print_regs>
    cprintf("  ds   0x----%04x\n", tf->tf_ds);
  101a68:	8b 45 08             	mov    0x8(%ebp),%eax
  101a6b:	0f b7 40 2c          	movzwl 0x2c(%eax),%eax
  101a6f:	0f b7 c0             	movzwl %ax,%eax
  101a72:	89 44 24 04          	mov    %eax,0x4(%esp)
  101a76:	c7 04 24 af 62 10 00 	movl   $0x1062af,(%esp)
  101a7d:	e8 ba e8 ff ff       	call   10033c <cprintf>
    cprintf("  es   0x----%04x\n", tf->tf_es);
  101a82:	8b 45 08             	mov    0x8(%ebp),%eax
  101a85:	0f b7 40 28          	movzwl 0x28(%eax),%eax
  101a89:	0f b7 c0             	movzwl %ax,%eax
  101a8c:	89 44 24 04          	mov    %eax,0x4(%esp)
  101a90:	c7 04 24 c2 62 10 00 	movl   $0x1062c2,(%esp)
  101a97:	e8 a0 e8 ff ff       	call   10033c <cprintf>
    cprintf("  fs   0x----%04x\n", tf->tf_fs);
  101a9c:	8b 45 08             	mov    0x8(%ebp),%eax
  101a9f:	0f b7 40 24          	movzwl 0x24(%eax),%eax
  101aa3:	0f b7 c0             	movzwl %ax,%eax
  101aa6:	89 44 24 04          	mov    %eax,0x4(%esp)
  101aaa:	c7 04 24 d5 62 10 00 	movl   $0x1062d5,(%esp)
  101ab1:	e8 86 e8 ff ff       	call   10033c <cprintf>
    cprintf("  gs   0x----%04x\n", tf->tf_gs);
  101ab6:	8b 45 08             	mov    0x8(%ebp),%eax
  101ab9:	0f b7 40 20          	movzwl 0x20(%eax),%eax
  101abd:	0f b7 c0             	movzwl %ax,%eax
  101ac0:	89 44 24 04          	mov    %eax,0x4(%esp)
  101ac4:	c7 04 24 e8 62 10 00 	movl   $0x1062e8,(%esp)
  101acb:	e8 6c e8 ff ff       	call   10033c <cprintf>
    cprintf("  trap 0x%08x %s\n", tf->tf_trapno, trapname(tf->tf_trapno));
  101ad0:	8b 45 08             	mov    0x8(%ebp),%eax
  101ad3:	8b 40 30             	mov    0x30(%eax),%eax
  101ad6:	89 04 24             	mov    %eax,(%esp)
  101ad9:	e8 1f ff ff ff       	call   1019fd <trapname>
  101ade:	8b 55 08             	mov    0x8(%ebp),%edx
  101ae1:	8b 52 30             	mov    0x30(%edx),%edx
  101ae4:	89 44 24 08          	mov    %eax,0x8(%esp)
  101ae8:	89 54 24 04          	mov    %edx,0x4(%esp)
  101aec:	c7 04 24 fb 62 10 00 	movl   $0x1062fb,(%esp)
  101af3:	e8 44 e8 ff ff       	call   10033c <cprintf>
    cprintf("  err  0x%08x\n", tf->tf_err);
  101af8:	8b 45 08             	mov    0x8(%ebp),%eax
  101afb:	8b 40 34             	mov    0x34(%eax),%eax
  101afe:	89 44 24 04          	mov    %eax,0x4(%esp)
  101b02:	c7 04 24 0d 63 10 00 	movl   $0x10630d,(%esp)
  101b09:	e8 2e e8 ff ff       	call   10033c <cprintf>
    cprintf("  eip  0x%08x\n", tf->tf_eip);
  101b0e:	8b 45 08             	mov    0x8(%ebp),%eax
  101b11:	8b 40 38             	mov    0x38(%eax),%eax
  101b14:	89 44 24 04          	mov    %eax,0x4(%esp)
  101b18:	c7 04 24 1c 63 10 00 	movl   $0x10631c,(%esp)
  101b1f:	e8 18 e8 ff ff       	call   10033c <cprintf>
    cprintf("  cs   0x----%04x\n", tf->tf_cs);
  101b24:	8b 45 08             	mov    0x8(%ebp),%eax
  101b27:	0f b7 40 3c          	movzwl 0x3c(%eax),%eax
  101b2b:	0f b7 c0             	movzwl %ax,%eax
  101b2e:	89 44 24 04          	mov    %eax,0x4(%esp)
  101b32:	c7 04 24 2b 63 10 00 	movl   $0x10632b,(%esp)
  101b39:	e8 fe e7 ff ff       	call   10033c <cprintf>
    cprintf("  flag 0x%08x ", tf->tf_eflags);
  101b3e:	8b 45 08             	mov    0x8(%ebp),%eax
  101b41:	8b 40 40             	mov    0x40(%eax),%eax
  101b44:	89 44 24 04          	mov    %eax,0x4(%esp)
  101b48:	c7 04 24 3e 63 10 00 	movl   $0x10633e,(%esp)
  101b4f:	e8 e8 e7 ff ff       	call   10033c <cprintf>

    int i, j;
    for (i = 0, j = 1; i < sizeof(IA32flags) / sizeof(IA32flags[0]); i ++, j <<= 1) {
  101b54:	c7 45 f4 00 00 00 00 	movl   $0x0,-0xc(%ebp)
  101b5b:	c7 45 f0 01 00 00 00 	movl   $0x1,-0x10(%ebp)
  101b62:	eb 3e                	jmp    101ba2 <print_trapframe+0x15e>
        if ((tf->tf_eflags & j) && IA32flags[i] != NULL) {
  101b64:	8b 45 08             	mov    0x8(%ebp),%eax
  101b67:	8b 50 40             	mov    0x40(%eax),%edx
  101b6a:	8b 45 f0             	mov    -0x10(%ebp),%eax
  101b6d:	21 d0                	and    %edx,%eax
  101b6f:	85 c0                	test   %eax,%eax
  101b71:	74 28                	je     101b9b <print_trapframe+0x157>
  101b73:	8b 45 f4             	mov    -0xc(%ebp),%eax
  101b76:	8b 04 85 a0 75 11 00 	mov    0x1175a0(,%eax,4),%eax
  101b7d:	85 c0                	test   %eax,%eax
  101b7f:	74 1a                	je     101b9b <print_trapframe+0x157>
            cprintf("%s,", IA32flags[i]);
  101b81:	8b 45 f4             	mov    -0xc(%ebp),%eax
  101b84:	8b 04 85 a0 75 11 00 	mov    0x1175a0(,%eax,4),%eax
  101b8b:	89 44 24 04          	mov    %eax,0x4(%esp)
  101b8f:	c7 04 24 4d 63 10 00 	movl   $0x10634d,(%esp)
  101b96:	e8 a1 e7 ff ff       	call   10033c <cprintf>
    cprintf("  eip  0x%08x\n", tf->tf_eip);
    cprintf("  cs   0x----%04x\n", tf->tf_cs);
    cprintf("  flag 0x%08x ", tf->tf_eflags);

    int i, j;
    for (i = 0, j = 1; i < sizeof(IA32flags) / sizeof(IA32flags[0]); i ++, j <<= 1) {
  101b9b:	83 45 f4 01          	addl   $0x1,-0xc(%ebp)
  101b9f:	d1 65 f0             	shll   -0x10(%ebp)
  101ba2:	8b 45 f4             	mov    -0xc(%ebp),%eax
  101ba5:	83 f8 17             	cmp    $0x17,%eax
  101ba8:	76 ba                	jbe    101b64 <print_trapframe+0x120>
        if ((tf->tf_eflags & j) && IA32flags[i] != NULL) {
            cprintf("%s,", IA32flags[i]);
        }
    }
    cprintf("IOPL=%d\n", (tf->tf_eflags & FL_IOPL_MASK) >> 12);
  101baa:	8b 45 08             	mov    0x8(%ebp),%eax
  101bad:	8b 40 40             	mov    0x40(%eax),%eax
  101bb0:	25 00 30 00 00       	and    $0x3000,%eax
  101bb5:	c1 e8 0c             	shr    $0xc,%eax
  101bb8:	89 44 24 04          	mov    %eax,0x4(%esp)
  101bbc:	c7 04 24 51 63 10 00 	movl   $0x106351,(%esp)
  101bc3:	e8 74 e7 ff ff       	call   10033c <cprintf>

    if (!trap_in_kernel(tf)) {
  101bc8:	8b 45 08             	mov    0x8(%ebp),%eax
  101bcb:	89 04 24             	mov    %eax,(%esp)
  101bce:	e8 5b fe ff ff       	call   101a2e <trap_in_kernel>
  101bd3:	85 c0                	test   %eax,%eax
  101bd5:	75 30                	jne    101c07 <print_trapframe+0x1c3>
        cprintf("  esp  0x%08x\n", tf->tf_esp);
  101bd7:	8b 45 08             	mov    0x8(%ebp),%eax
  101bda:	8b 40 44             	mov    0x44(%eax),%eax
  101bdd:	89 44 24 04          	mov    %eax,0x4(%esp)
  101be1:	c7 04 24 5a 63 10 00 	movl   $0x10635a,(%esp)
  101be8:	e8 4f e7 ff ff       	call   10033c <cprintf>
        cprintf("  ss   0x----%04x\n", tf->tf_ss);
  101bed:	8b 45 08             	mov    0x8(%ebp),%eax
  101bf0:	0f b7 40 48          	movzwl 0x48(%eax),%eax
  101bf4:	0f b7 c0             	movzwl %ax,%eax
  101bf7:	89 44 24 04          	mov    %eax,0x4(%esp)
  101bfb:	c7 04 24 69 63 10 00 	movl   $0x106369,(%esp)
  101c02:	e8 35 e7 ff ff       	call   10033c <cprintf>
    }
}
  101c07:	c9                   	leave  
  101c08:	c3                   	ret    

00101c09 <print_regs>:

void
print_regs(struct pushregs *regs) {
  101c09:	55                   	push   %ebp
  101c0a:	89 e5                	mov    %esp,%ebp
  101c0c:	83 ec 18             	sub    $0x18,%esp
    cprintf("  edi  0x%08x\n", regs->reg_edi);
  101c0f:	8b 45 08             	mov    0x8(%ebp),%eax
  101c12:	8b 00                	mov    (%eax),%eax
  101c14:	89 44 24 04          	mov    %eax,0x4(%esp)
  101c18:	c7 04 24 7c 63 10 00 	movl   $0x10637c,(%esp)
  101c1f:	e8 18 e7 ff ff       	call   10033c <cprintf>
    cprintf("  esi  0x%08x\n", regs->reg_esi);
  101c24:	8b 45 08             	mov    0x8(%ebp),%eax
  101c27:	8b 40 04             	mov    0x4(%eax),%eax
  101c2a:	89 44 24 04          	mov    %eax,0x4(%esp)
  101c2e:	c7 04 24 8b 63 10 00 	movl   $0x10638b,(%esp)
  101c35:	e8 02 e7 ff ff       	call   10033c <cprintf>
    cprintf("  ebp  0x%08x\n", regs->reg_ebp);
  101c3a:	8b 45 08             	mov    0x8(%ebp),%eax
  101c3d:	8b 40 08             	mov    0x8(%eax),%eax
  101c40:	89 44 24 04          	mov    %eax,0x4(%esp)
  101c44:	c7 04 24 9a 63 10 00 	movl   $0x10639a,(%esp)
  101c4b:	e8 ec e6 ff ff       	call   10033c <cprintf>
    cprintf("  oesp 0x%08x\n", regs->reg_oesp);
  101c50:	8b 45 08             	mov    0x8(%ebp),%eax
  101c53:	8b 40 0c             	mov    0xc(%eax),%eax
  101c56:	89 44 24 04          	mov    %eax,0x4(%esp)
  101c5a:	c7 04 24 a9 63 10 00 	movl   $0x1063a9,(%esp)
  101c61:	e8 d6 e6 ff ff       	call   10033c <cprintf>
    cprintf("  ebx  0x%08x\n", regs->reg_ebx);
  101c66:	8b 45 08             	mov    0x8(%ebp),%eax
  101c69:	8b 40 10             	mov    0x10(%eax),%eax
  101c6c:	89 44 24 04          	mov    %eax,0x4(%esp)
  101c70:	c7 04 24 b8 63 10 00 	movl   $0x1063b8,(%esp)
  101c77:	e8 c0 e6 ff ff       	call   10033c <cprintf>
    cprintf("  edx  0x%08x\n", regs->reg_edx);
  101c7c:	8b 45 08             	mov    0x8(%ebp),%eax
  101c7f:	8b 40 14             	mov    0x14(%eax),%eax
  101c82:	89 44 24 04          	mov    %eax,0x4(%esp)
  101c86:	c7 04 24 c7 63 10 00 	movl   $0x1063c7,(%esp)
  101c8d:	e8 aa e6 ff ff       	call   10033c <cprintf>
    cprintf("  ecx  0x%08x\n", regs->reg_ecx);
  101c92:	8b 45 08             	mov    0x8(%ebp),%eax
  101c95:	8b 40 18             	mov    0x18(%eax),%eax
  101c98:	89 44 24 04          	mov    %eax,0x4(%esp)
  101c9c:	c7 04 24 d6 63 10 00 	movl   $0x1063d6,(%esp)
  101ca3:	e8 94 e6 ff ff       	call   10033c <cprintf>
    cprintf("  eax  0x%08x\n", regs->reg_eax);
  101ca8:	8b 45 08             	mov    0x8(%ebp),%eax
  101cab:	8b 40 1c             	mov    0x1c(%eax),%eax
  101cae:	89 44 24 04          	mov    %eax,0x4(%esp)
  101cb2:	c7 04 24 e5 63 10 00 	movl   $0x1063e5,(%esp)
  101cb9:	e8 7e e6 ff ff       	call   10033c <cprintf>
}
  101cbe:	c9                   	leave  
  101cbf:	c3                   	ret    

00101cc0 <trap_dispatch>:

/* trap_dispatch - dispatch based on what type of trap occurred */
static void
trap_dispatch(struct trapframe *tf) {
  101cc0:	55                   	push   %ebp
  101cc1:	89 e5                	mov    %esp,%ebp
  101cc3:	83 ec 28             	sub    $0x28,%esp
    char c;

    switch (tf->tf_trapno) {
  101cc6:	8b 45 08             	mov    0x8(%ebp),%eax
  101cc9:	8b 40 30             	mov    0x30(%eax),%eax
  101ccc:	83 f8 2f             	cmp    $0x2f,%eax
  101ccf:	77 1d                	ja     101cee <trap_dispatch+0x2e>
  101cd1:	83 f8 2e             	cmp    $0x2e,%eax
  101cd4:	0f 83 f2 00 00 00    	jae    101dcc <trap_dispatch+0x10c>
  101cda:	83 f8 21             	cmp    $0x21,%eax
  101cdd:	74 73                	je     101d52 <trap_dispatch+0x92>
  101cdf:	83 f8 24             	cmp    $0x24,%eax
  101ce2:	74 48                	je     101d2c <trap_dispatch+0x6c>
  101ce4:	83 f8 20             	cmp    $0x20,%eax
  101ce7:	74 13                	je     101cfc <trap_dispatch+0x3c>
  101ce9:	e9 a6 00 00 00       	jmp    101d94 <trap_dispatch+0xd4>
  101cee:	83 e8 78             	sub    $0x78,%eax
  101cf1:	83 f8 01             	cmp    $0x1,%eax
  101cf4:	0f 87 9a 00 00 00    	ja     101d94 <trap_dispatch+0xd4>
  101cfa:	eb 7c                	jmp    101d78 <trap_dispatch+0xb8>
        /* handle the timer interrupt */
        /* (1) After a timer interrupt, you should record this event using a global variable (increase it), such as ticks in kern/driver/clock.c
         * (2) Every TICK_NUM cycle, you can print some info using a funciton, such as print_ticks().
         * (3) Too Simple? Yes, I think so!
         */
        ticks ++;
  101cfc:	a1 4c 89 11 00       	mov    0x11894c,%eax
  101d01:	83 c0 01             	add    $0x1,%eax
  101d04:	a3 4c 89 11 00       	mov    %eax,0x11894c
        if (ticks == TICK_NUM) {
  101d09:	a1 4c 89 11 00       	mov    0x11894c,%eax
  101d0e:	83 f8 64             	cmp    $0x64,%eax
  101d11:	75 14                	jne    101d27 <trap_dispatch+0x67>
            print_ticks();
  101d13:	e8 58 fb ff ff       	call   101870 <print_ticks>
           	ticks = 0;
  101d18:	c7 05 4c 89 11 00 00 	movl   $0x0,0x11894c
  101d1f:	00 00 00 
        }
        break;
  101d22:	e9 a6 00 00 00       	jmp    101dcd <trap_dispatch+0x10d>
  101d27:	e9 a1 00 00 00       	jmp    101dcd <trap_dispatch+0x10d>
    case IRQ_OFFSET + IRQ_COM1:
        c = cons_getc();
  101d2c:	e8 03 f9 ff ff       	call   101634 <cons_getc>
  101d31:	88 45 f7             	mov    %al,-0x9(%ebp)
        cprintf("serial [%03d] %c\n", c, c);
  101d34:	0f be 55 f7          	movsbl -0x9(%ebp),%edx
  101d38:	0f be 45 f7          	movsbl -0x9(%ebp),%eax
  101d3c:	89 54 24 08          	mov    %edx,0x8(%esp)
  101d40:	89 44 24 04          	mov    %eax,0x4(%esp)
  101d44:	c7 04 24 f4 63 10 00 	movl   $0x1063f4,(%esp)
  101d4b:	e8 ec e5 ff ff       	call   10033c <cprintf>
        break;
  101d50:	eb 7b                	jmp    101dcd <trap_dispatch+0x10d>
    case IRQ_OFFSET + IRQ_KBD:
        c = cons_getc();
  101d52:	e8 dd f8 ff ff       	call   101634 <cons_getc>
  101d57:	88 45 f7             	mov    %al,-0x9(%ebp)
        cprintf("kbd [%03d] %c\n", c, c);
  101d5a:	0f be 55 f7          	movsbl -0x9(%ebp),%edx
  101d5e:	0f be 45 f7          	movsbl -0x9(%ebp),%eax
  101d62:	89 54 24 08          	mov    %edx,0x8(%esp)
  101d66:	89 44 24 04          	mov    %eax,0x4(%esp)
  101d6a:	c7 04 24 06 64 10 00 	movl   $0x106406,(%esp)
  101d71:	e8 c6 e5 ff ff       	call   10033c <cprintf>
        break;
  101d76:	eb 55                	jmp    101dcd <trap_dispatch+0x10d>
    //LAB1 CHALLENGE 1 : YOUR CODE you should modify below codes.
    case T_SWITCH_TOU:
    case T_SWITCH_TOK:
        panic("T_SWITCH_** ??\n");
  101d78:	c7 44 24 08 15 64 10 	movl   $0x106415,0x8(%esp)
  101d7f:	00 
  101d80:	c7 44 24 04 ae 00 00 	movl   $0xae,0x4(%esp)
  101d87:	00 
  101d88:	c7 04 24 25 64 10 00 	movl   $0x106425,(%esp)
  101d8f:	e8 32 ef ff ff       	call   100cc6 <__panic>
    case IRQ_OFFSET + IRQ_IDE2:
        /* do nothing */
        break;
    default:
        // in kernel, it must be a mistake
        if ((tf->tf_cs & 3) == 0) {
  101d94:	8b 45 08             	mov    0x8(%ebp),%eax
  101d97:	0f b7 40 3c          	movzwl 0x3c(%eax),%eax
  101d9b:	0f b7 c0             	movzwl %ax,%eax
  101d9e:	83 e0 03             	and    $0x3,%eax
  101da1:	85 c0                	test   %eax,%eax
  101da3:	75 28                	jne    101dcd <trap_dispatch+0x10d>
            print_trapframe(tf);
  101da5:	8b 45 08             	mov    0x8(%ebp),%eax
  101da8:	89 04 24             	mov    %eax,(%esp)
  101dab:	e8 94 fc ff ff       	call   101a44 <print_trapframe>
            panic("unexpected trap in kernel.\n");
  101db0:	c7 44 24 08 36 64 10 	movl   $0x106436,0x8(%esp)
  101db7:	00 
  101db8:	c7 44 24 04 b8 00 00 	movl   $0xb8,0x4(%esp)
  101dbf:	00 
  101dc0:	c7 04 24 25 64 10 00 	movl   $0x106425,(%esp)
  101dc7:	e8 fa ee ff ff       	call   100cc6 <__panic>
        panic("T_SWITCH_** ??\n");
        break;
    case IRQ_OFFSET + IRQ_IDE1:
    case IRQ_OFFSET + IRQ_IDE2:
        /* do nothing */
        break;
  101dcc:	90                   	nop
        if ((tf->tf_cs & 3) == 0) {
            print_trapframe(tf);
            panic("unexpected trap in kernel.\n");
        }
    }
}
  101dcd:	c9                   	leave  
  101dce:	c3                   	ret    

00101dcf <trap>:
 * trap - handles or dispatches an exception/interrupt. if and when trap() returns,
 * the code in kern/trap/trapentry.S restores the old CPU state saved in the
 * trapframe and then uses the iret instruction to return from the exception.
 * */
void
trap(struct trapframe *tf) {
  101dcf:	55                   	push   %ebp
  101dd0:	89 e5                	mov    %esp,%ebp
  101dd2:	83 ec 18             	sub    $0x18,%esp
    // dispatch based on what type of trap occurred
    trap_dispatch(tf);
  101dd5:	8b 45 08             	mov    0x8(%ebp),%eax
  101dd8:	89 04 24             	mov    %eax,(%esp)
  101ddb:	e8 e0 fe ff ff       	call   101cc0 <trap_dispatch>
}
  101de0:	c9                   	leave  
  101de1:	c3                   	ret    

00101de2 <__alltraps>:
.text
.globl __alltraps
__alltraps:
    # push registers to build a trap frame
    # therefore make the stack look like a struct trapframe
    pushl %ds
  101de2:	1e                   	push   %ds
    pushl %es
  101de3:	06                   	push   %es
    pushl %fs
  101de4:	0f a0                	push   %fs
    pushl %gs
  101de6:	0f a8                	push   %gs
    pushal
  101de8:	60                   	pusha  

    # load GD_KDATA into %ds and %es to set up data segments for kernel
    movl $GD_KDATA, %eax
  101de9:	b8 10 00 00 00       	mov    $0x10,%eax
    movw %ax, %ds
  101dee:	8e d8                	mov    %eax,%ds
    movw %ax, %es
  101df0:	8e c0                	mov    %eax,%es

    # push %esp to pass a pointer to the trapframe as an argument to trap()
    pushl %esp
  101df2:	54                   	push   %esp

    # call trap(tf), where tf=%esp
    call trap
  101df3:	e8 d7 ff ff ff       	call   101dcf <trap>

    # pop the pushed stack pointer
    popl %esp
  101df8:	5c                   	pop    %esp

00101df9 <__trapret>:

    # return falls through to trapret...
.globl __trapret
__trapret:
    # restore registers from stack
    popal
  101df9:	61                   	popa   

    # restore %ds, %es, %fs and %gs
    popl %gs
  101dfa:	0f a9                	pop    %gs
    popl %fs
  101dfc:	0f a1                	pop    %fs
    popl %es
  101dfe:	07                   	pop    %es
    popl %ds
  101dff:	1f                   	pop    %ds

    # get rid of the trap number and error code
    addl $0x8, %esp
  101e00:	83 c4 08             	add    $0x8,%esp
    iret
  101e03:	cf                   	iret   

00101e04 <vector0>:
# handler
.text
.globl __alltraps
.globl vector0
vector0:
  pushl $0
  101e04:	6a 00                	push   $0x0
  pushl $0
  101e06:	6a 00                	push   $0x0
  jmp __alltraps
  101e08:	e9 d5 ff ff ff       	jmp    101de2 <__alltraps>

00101e0d <vector1>:
.globl vector1
vector1:
  pushl $0
  101e0d:	6a 00                	push   $0x0
  pushl $1
  101e0f:	6a 01                	push   $0x1
  jmp __alltraps
  101e11:	e9 cc ff ff ff       	jmp    101de2 <__alltraps>

00101e16 <vector2>:
.globl vector2
vector2:
  pushl $0
  101e16:	6a 00                	push   $0x0
  pushl $2
  101e18:	6a 02                	push   $0x2
  jmp __alltraps
  101e1a:	e9 c3 ff ff ff       	jmp    101de2 <__alltraps>

00101e1f <vector3>:
.globl vector3
vector3:
  pushl $0
  101e1f:	6a 00                	push   $0x0
  pushl $3
  101e21:	6a 03                	push   $0x3
  jmp __alltraps
  101e23:	e9 ba ff ff ff       	jmp    101de2 <__alltraps>

00101e28 <vector4>:
.globl vector4
vector4:
  pushl $0
  101e28:	6a 00                	push   $0x0
  pushl $4
  101e2a:	6a 04                	push   $0x4
  jmp __alltraps
  101e2c:	e9 b1 ff ff ff       	jmp    101de2 <__alltraps>

00101e31 <vector5>:
.globl vector5
vector5:
  pushl $0
  101e31:	6a 00                	push   $0x0
  pushl $5
  101e33:	6a 05                	push   $0x5
  jmp __alltraps
  101e35:	e9 a8 ff ff ff       	jmp    101de2 <__alltraps>

00101e3a <vector6>:
.globl vector6
vector6:
  pushl $0
  101e3a:	6a 00                	push   $0x0
  pushl $6
  101e3c:	6a 06                	push   $0x6
  jmp __alltraps
  101e3e:	e9 9f ff ff ff       	jmp    101de2 <__alltraps>

00101e43 <vector7>:
.globl vector7
vector7:
  pushl $0
  101e43:	6a 00                	push   $0x0
  pushl $7
  101e45:	6a 07                	push   $0x7
  jmp __alltraps
  101e47:	e9 96 ff ff ff       	jmp    101de2 <__alltraps>

00101e4c <vector8>:
.globl vector8
vector8:
  pushl $8
  101e4c:	6a 08                	push   $0x8
  jmp __alltraps
  101e4e:	e9 8f ff ff ff       	jmp    101de2 <__alltraps>

00101e53 <vector9>:
.globl vector9
vector9:
  pushl $9
  101e53:	6a 09                	push   $0x9
  jmp __alltraps
  101e55:	e9 88 ff ff ff       	jmp    101de2 <__alltraps>

00101e5a <vector10>:
.globl vector10
vector10:
  pushl $10
  101e5a:	6a 0a                	push   $0xa
  jmp __alltraps
  101e5c:	e9 81 ff ff ff       	jmp    101de2 <__alltraps>

00101e61 <vector11>:
.globl vector11
vector11:
  pushl $11
  101e61:	6a 0b                	push   $0xb
  jmp __alltraps
  101e63:	e9 7a ff ff ff       	jmp    101de2 <__alltraps>

00101e68 <vector12>:
.globl vector12
vector12:
  pushl $12
  101e68:	6a 0c                	push   $0xc
  jmp __alltraps
  101e6a:	e9 73 ff ff ff       	jmp    101de2 <__alltraps>

00101e6f <vector13>:
.globl vector13
vector13:
  pushl $13
  101e6f:	6a 0d                	push   $0xd
  jmp __alltraps
  101e71:	e9 6c ff ff ff       	jmp    101de2 <__alltraps>

00101e76 <vector14>:
.globl vector14
vector14:
  pushl $14
  101e76:	6a 0e                	push   $0xe
  jmp __alltraps
  101e78:	e9 65 ff ff ff       	jmp    101de2 <__alltraps>

00101e7d <vector15>:
.globl vector15
vector15:
  pushl $0
  101e7d:	6a 00                	push   $0x0
  pushl $15
  101e7f:	6a 0f                	push   $0xf
  jmp __alltraps
  101e81:	e9 5c ff ff ff       	jmp    101de2 <__alltraps>

00101e86 <vector16>:
.globl vector16
vector16:
  pushl $0
  101e86:	6a 00                	push   $0x0
  pushl $16
  101e88:	6a 10                	push   $0x10
  jmp __alltraps
  101e8a:	e9 53 ff ff ff       	jmp    101de2 <__alltraps>

00101e8f <vector17>:
.globl vector17
vector17:
  pushl $17
  101e8f:	6a 11                	push   $0x11
  jmp __alltraps
  101e91:	e9 4c ff ff ff       	jmp    101de2 <__alltraps>

00101e96 <vector18>:
.globl vector18
vector18:
  pushl $0
  101e96:	6a 00                	push   $0x0
  pushl $18
  101e98:	6a 12                	push   $0x12
  jmp __alltraps
  101e9a:	e9 43 ff ff ff       	jmp    101de2 <__alltraps>

00101e9f <vector19>:
.globl vector19
vector19:
  pushl $0
  101e9f:	6a 00                	push   $0x0
  pushl $19
  101ea1:	6a 13                	push   $0x13
  jmp __alltraps
  101ea3:	e9 3a ff ff ff       	jmp    101de2 <__alltraps>

00101ea8 <vector20>:
.globl vector20
vector20:
  pushl $0
  101ea8:	6a 00                	push   $0x0
  pushl $20
  101eaa:	6a 14                	push   $0x14
  jmp __alltraps
  101eac:	e9 31 ff ff ff       	jmp    101de2 <__alltraps>

00101eb1 <vector21>:
.globl vector21
vector21:
  pushl $0
  101eb1:	6a 00                	push   $0x0
  pushl $21
  101eb3:	6a 15                	push   $0x15
  jmp __alltraps
  101eb5:	e9 28 ff ff ff       	jmp    101de2 <__alltraps>

00101eba <vector22>:
.globl vector22
vector22:
  pushl $0
  101eba:	6a 00                	push   $0x0
  pushl $22
  101ebc:	6a 16                	push   $0x16
  jmp __alltraps
  101ebe:	e9 1f ff ff ff       	jmp    101de2 <__alltraps>

00101ec3 <vector23>:
.globl vector23
vector23:
  pushl $0
  101ec3:	6a 00                	push   $0x0
  pushl $23
  101ec5:	6a 17                	push   $0x17
  jmp __alltraps
  101ec7:	e9 16 ff ff ff       	jmp    101de2 <__alltraps>

00101ecc <vector24>:
.globl vector24
vector24:
  pushl $0
  101ecc:	6a 00                	push   $0x0
  pushl $24
  101ece:	6a 18                	push   $0x18
  jmp __alltraps
  101ed0:	e9 0d ff ff ff       	jmp    101de2 <__alltraps>

00101ed5 <vector25>:
.globl vector25
vector25:
  pushl $0
  101ed5:	6a 00                	push   $0x0
  pushl $25
  101ed7:	6a 19                	push   $0x19
  jmp __alltraps
  101ed9:	e9 04 ff ff ff       	jmp    101de2 <__alltraps>

00101ede <vector26>:
.globl vector26
vector26:
  pushl $0
  101ede:	6a 00                	push   $0x0
  pushl $26
  101ee0:	6a 1a                	push   $0x1a
  jmp __alltraps
  101ee2:	e9 fb fe ff ff       	jmp    101de2 <__alltraps>

00101ee7 <vector27>:
.globl vector27
vector27:
  pushl $0
  101ee7:	6a 00                	push   $0x0
  pushl $27
  101ee9:	6a 1b                	push   $0x1b
  jmp __alltraps
  101eeb:	e9 f2 fe ff ff       	jmp    101de2 <__alltraps>

00101ef0 <vector28>:
.globl vector28
vector28:
  pushl $0
  101ef0:	6a 00                	push   $0x0
  pushl $28
  101ef2:	6a 1c                	push   $0x1c
  jmp __alltraps
  101ef4:	e9 e9 fe ff ff       	jmp    101de2 <__alltraps>

00101ef9 <vector29>:
.globl vector29
vector29:
  pushl $0
  101ef9:	6a 00                	push   $0x0
  pushl $29
  101efb:	6a 1d                	push   $0x1d
  jmp __alltraps
  101efd:	e9 e0 fe ff ff       	jmp    101de2 <__alltraps>

00101f02 <vector30>:
.globl vector30
vector30:
  pushl $0
  101f02:	6a 00                	push   $0x0
  pushl $30
  101f04:	6a 1e                	push   $0x1e
  jmp __alltraps
  101f06:	e9 d7 fe ff ff       	jmp    101de2 <__alltraps>

00101f0b <vector31>:
.globl vector31
vector31:
  pushl $0
  101f0b:	6a 00                	push   $0x0
  pushl $31
  101f0d:	6a 1f                	push   $0x1f
  jmp __alltraps
  101f0f:	e9 ce fe ff ff       	jmp    101de2 <__alltraps>

00101f14 <vector32>:
.globl vector32
vector32:
  pushl $0
  101f14:	6a 00                	push   $0x0
  pushl $32
  101f16:	6a 20                	push   $0x20
  jmp __alltraps
  101f18:	e9 c5 fe ff ff       	jmp    101de2 <__alltraps>

00101f1d <vector33>:
.globl vector33
vector33:
  pushl $0
  101f1d:	6a 00                	push   $0x0
  pushl $33
  101f1f:	6a 21                	push   $0x21
  jmp __alltraps
  101f21:	e9 bc fe ff ff       	jmp    101de2 <__alltraps>

00101f26 <vector34>:
.globl vector34
vector34:
  pushl $0
  101f26:	6a 00                	push   $0x0
  pushl $34
  101f28:	6a 22                	push   $0x22
  jmp __alltraps
  101f2a:	e9 b3 fe ff ff       	jmp    101de2 <__alltraps>

00101f2f <vector35>:
.globl vector35
vector35:
  pushl $0
  101f2f:	6a 00                	push   $0x0
  pushl $35
  101f31:	6a 23                	push   $0x23
  jmp __alltraps
  101f33:	e9 aa fe ff ff       	jmp    101de2 <__alltraps>

00101f38 <vector36>:
.globl vector36
vector36:
  pushl $0
  101f38:	6a 00                	push   $0x0
  pushl $36
  101f3a:	6a 24                	push   $0x24
  jmp __alltraps
  101f3c:	e9 a1 fe ff ff       	jmp    101de2 <__alltraps>

00101f41 <vector37>:
.globl vector37
vector37:
  pushl $0
  101f41:	6a 00                	push   $0x0
  pushl $37
  101f43:	6a 25                	push   $0x25
  jmp __alltraps
  101f45:	e9 98 fe ff ff       	jmp    101de2 <__alltraps>

00101f4a <vector38>:
.globl vector38
vector38:
  pushl $0
  101f4a:	6a 00                	push   $0x0
  pushl $38
  101f4c:	6a 26                	push   $0x26
  jmp __alltraps
  101f4e:	e9 8f fe ff ff       	jmp    101de2 <__alltraps>

00101f53 <vector39>:
.globl vector39
vector39:
  pushl $0
  101f53:	6a 00                	push   $0x0
  pushl $39
  101f55:	6a 27                	push   $0x27
  jmp __alltraps
  101f57:	e9 86 fe ff ff       	jmp    101de2 <__alltraps>

00101f5c <vector40>:
.globl vector40
vector40:
  pushl $0
  101f5c:	6a 00                	push   $0x0
  pushl $40
  101f5e:	6a 28                	push   $0x28
  jmp __alltraps
  101f60:	e9 7d fe ff ff       	jmp    101de2 <__alltraps>

00101f65 <vector41>:
.globl vector41
vector41:
  pushl $0
  101f65:	6a 00                	push   $0x0
  pushl $41
  101f67:	6a 29                	push   $0x29
  jmp __alltraps
  101f69:	e9 74 fe ff ff       	jmp    101de2 <__alltraps>

00101f6e <vector42>:
.globl vector42
vector42:
  pushl $0
  101f6e:	6a 00                	push   $0x0
  pushl $42
  101f70:	6a 2a                	push   $0x2a
  jmp __alltraps
  101f72:	e9 6b fe ff ff       	jmp    101de2 <__alltraps>

00101f77 <vector43>:
.globl vector43
vector43:
  pushl $0
  101f77:	6a 00                	push   $0x0
  pushl $43
  101f79:	6a 2b                	push   $0x2b
  jmp __alltraps
  101f7b:	e9 62 fe ff ff       	jmp    101de2 <__alltraps>

00101f80 <vector44>:
.globl vector44
vector44:
  pushl $0
  101f80:	6a 00                	push   $0x0
  pushl $44
  101f82:	6a 2c                	push   $0x2c
  jmp __alltraps
  101f84:	e9 59 fe ff ff       	jmp    101de2 <__alltraps>

00101f89 <vector45>:
.globl vector45
vector45:
  pushl $0
  101f89:	6a 00                	push   $0x0
  pushl $45
  101f8b:	6a 2d                	push   $0x2d
  jmp __alltraps
  101f8d:	e9 50 fe ff ff       	jmp    101de2 <__alltraps>

00101f92 <vector46>:
.globl vector46
vector46:
  pushl $0
  101f92:	6a 00                	push   $0x0
  pushl $46
  101f94:	6a 2e                	push   $0x2e
  jmp __alltraps
  101f96:	e9 47 fe ff ff       	jmp    101de2 <__alltraps>

00101f9b <vector47>:
.globl vector47
vector47:
  pushl $0
  101f9b:	6a 00                	push   $0x0
  pushl $47
  101f9d:	6a 2f                	push   $0x2f
  jmp __alltraps
  101f9f:	e9 3e fe ff ff       	jmp    101de2 <__alltraps>

00101fa4 <vector48>:
.globl vector48
vector48:
  pushl $0
  101fa4:	6a 00                	push   $0x0
  pushl $48
  101fa6:	6a 30                	push   $0x30
  jmp __alltraps
  101fa8:	e9 35 fe ff ff       	jmp    101de2 <__alltraps>

00101fad <vector49>:
.globl vector49
vector49:
  pushl $0
  101fad:	6a 00                	push   $0x0
  pushl $49
  101faf:	6a 31                	push   $0x31
  jmp __alltraps
  101fb1:	e9 2c fe ff ff       	jmp    101de2 <__alltraps>

00101fb6 <vector50>:
.globl vector50
vector50:
  pushl $0
  101fb6:	6a 00                	push   $0x0
  pushl $50
  101fb8:	6a 32                	push   $0x32
  jmp __alltraps
  101fba:	e9 23 fe ff ff       	jmp    101de2 <__alltraps>

00101fbf <vector51>:
.globl vector51
vector51:
  pushl $0
  101fbf:	6a 00                	push   $0x0
  pushl $51
  101fc1:	6a 33                	push   $0x33
  jmp __alltraps
  101fc3:	e9 1a fe ff ff       	jmp    101de2 <__alltraps>

00101fc8 <vector52>:
.globl vector52
vector52:
  pushl $0
  101fc8:	6a 00                	push   $0x0
  pushl $52
  101fca:	6a 34                	push   $0x34
  jmp __alltraps
  101fcc:	e9 11 fe ff ff       	jmp    101de2 <__alltraps>

00101fd1 <vector53>:
.globl vector53
vector53:
  pushl $0
  101fd1:	6a 00                	push   $0x0
  pushl $53
  101fd3:	6a 35                	push   $0x35
  jmp __alltraps
  101fd5:	e9 08 fe ff ff       	jmp    101de2 <__alltraps>

00101fda <vector54>:
.globl vector54
vector54:
  pushl $0
  101fda:	6a 00                	push   $0x0
  pushl $54
  101fdc:	6a 36                	push   $0x36
  jmp __alltraps
  101fde:	e9 ff fd ff ff       	jmp    101de2 <__alltraps>

00101fe3 <vector55>:
.globl vector55
vector55:
  pushl $0
  101fe3:	6a 00                	push   $0x0
  pushl $55
  101fe5:	6a 37                	push   $0x37
  jmp __alltraps
  101fe7:	e9 f6 fd ff ff       	jmp    101de2 <__alltraps>

00101fec <vector56>:
.globl vector56
vector56:
  pushl $0
  101fec:	6a 00                	push   $0x0
  pushl $56
  101fee:	6a 38                	push   $0x38
  jmp __alltraps
  101ff0:	e9 ed fd ff ff       	jmp    101de2 <__alltraps>

00101ff5 <vector57>:
.globl vector57
vector57:
  pushl $0
  101ff5:	6a 00                	push   $0x0
  pushl $57
  101ff7:	6a 39                	push   $0x39
  jmp __alltraps
  101ff9:	e9 e4 fd ff ff       	jmp    101de2 <__alltraps>

00101ffe <vector58>:
.globl vector58
vector58:
  pushl $0
  101ffe:	6a 00                	push   $0x0
  pushl $58
  102000:	6a 3a                	push   $0x3a
  jmp __alltraps
  102002:	e9 db fd ff ff       	jmp    101de2 <__alltraps>

00102007 <vector59>:
.globl vector59
vector59:
  pushl $0
  102007:	6a 00                	push   $0x0
  pushl $59
  102009:	6a 3b                	push   $0x3b
  jmp __alltraps
  10200b:	e9 d2 fd ff ff       	jmp    101de2 <__alltraps>

00102010 <vector60>:
.globl vector60
vector60:
  pushl $0
  102010:	6a 00                	push   $0x0
  pushl $60
  102012:	6a 3c                	push   $0x3c
  jmp __alltraps
  102014:	e9 c9 fd ff ff       	jmp    101de2 <__alltraps>

00102019 <vector61>:
.globl vector61
vector61:
  pushl $0
  102019:	6a 00                	push   $0x0
  pushl $61
  10201b:	6a 3d                	push   $0x3d
  jmp __alltraps
  10201d:	e9 c0 fd ff ff       	jmp    101de2 <__alltraps>

00102022 <vector62>:
.globl vector62
vector62:
  pushl $0
  102022:	6a 00                	push   $0x0
  pushl $62
  102024:	6a 3e                	push   $0x3e
  jmp __alltraps
  102026:	e9 b7 fd ff ff       	jmp    101de2 <__alltraps>

0010202b <vector63>:
.globl vector63
vector63:
  pushl $0
  10202b:	6a 00                	push   $0x0
  pushl $63
  10202d:	6a 3f                	push   $0x3f
  jmp __alltraps
  10202f:	e9 ae fd ff ff       	jmp    101de2 <__alltraps>

00102034 <vector64>:
.globl vector64
vector64:
  pushl $0
  102034:	6a 00                	push   $0x0
  pushl $64
  102036:	6a 40                	push   $0x40
  jmp __alltraps
  102038:	e9 a5 fd ff ff       	jmp    101de2 <__alltraps>

0010203d <vector65>:
.globl vector65
vector65:
  pushl $0
  10203d:	6a 00                	push   $0x0
  pushl $65
  10203f:	6a 41                	push   $0x41
  jmp __alltraps
  102041:	e9 9c fd ff ff       	jmp    101de2 <__alltraps>

00102046 <vector66>:
.globl vector66
vector66:
  pushl $0
  102046:	6a 00                	push   $0x0
  pushl $66
  102048:	6a 42                	push   $0x42
  jmp __alltraps
  10204a:	e9 93 fd ff ff       	jmp    101de2 <__alltraps>

0010204f <vector67>:
.globl vector67
vector67:
  pushl $0
  10204f:	6a 00                	push   $0x0
  pushl $67
  102051:	6a 43                	push   $0x43
  jmp __alltraps
  102053:	e9 8a fd ff ff       	jmp    101de2 <__alltraps>

00102058 <vector68>:
.globl vector68
vector68:
  pushl $0
  102058:	6a 00                	push   $0x0
  pushl $68
  10205a:	6a 44                	push   $0x44
  jmp __alltraps
  10205c:	e9 81 fd ff ff       	jmp    101de2 <__alltraps>

00102061 <vector69>:
.globl vector69
vector69:
  pushl $0
  102061:	6a 00                	push   $0x0
  pushl $69
  102063:	6a 45                	push   $0x45
  jmp __alltraps
  102065:	e9 78 fd ff ff       	jmp    101de2 <__alltraps>

0010206a <vector70>:
.globl vector70
vector70:
  pushl $0
  10206a:	6a 00                	push   $0x0
  pushl $70
  10206c:	6a 46                	push   $0x46
  jmp __alltraps
  10206e:	e9 6f fd ff ff       	jmp    101de2 <__alltraps>

00102073 <vector71>:
.globl vector71
vector71:
  pushl $0
  102073:	6a 00                	push   $0x0
  pushl $71
  102075:	6a 47                	push   $0x47
  jmp __alltraps
  102077:	e9 66 fd ff ff       	jmp    101de2 <__alltraps>

0010207c <vector72>:
.globl vector72
vector72:
  pushl $0
  10207c:	6a 00                	push   $0x0
  pushl $72
  10207e:	6a 48                	push   $0x48
  jmp __alltraps
  102080:	e9 5d fd ff ff       	jmp    101de2 <__alltraps>

00102085 <vector73>:
.globl vector73
vector73:
  pushl $0
  102085:	6a 00                	push   $0x0
  pushl $73
  102087:	6a 49                	push   $0x49
  jmp __alltraps
  102089:	e9 54 fd ff ff       	jmp    101de2 <__alltraps>

0010208e <vector74>:
.globl vector74
vector74:
  pushl $0
  10208e:	6a 00                	push   $0x0
  pushl $74
  102090:	6a 4a                	push   $0x4a
  jmp __alltraps
  102092:	e9 4b fd ff ff       	jmp    101de2 <__alltraps>

00102097 <vector75>:
.globl vector75
vector75:
  pushl $0
  102097:	6a 00                	push   $0x0
  pushl $75
  102099:	6a 4b                	push   $0x4b
  jmp __alltraps
  10209b:	e9 42 fd ff ff       	jmp    101de2 <__alltraps>

001020a0 <vector76>:
.globl vector76
vector76:
  pushl $0
  1020a0:	6a 00                	push   $0x0
  pushl $76
  1020a2:	6a 4c                	push   $0x4c
  jmp __alltraps
  1020a4:	e9 39 fd ff ff       	jmp    101de2 <__alltraps>

001020a9 <vector77>:
.globl vector77
vector77:
  pushl $0
  1020a9:	6a 00                	push   $0x0
  pushl $77
  1020ab:	6a 4d                	push   $0x4d
  jmp __alltraps
  1020ad:	e9 30 fd ff ff       	jmp    101de2 <__alltraps>

001020b2 <vector78>:
.globl vector78
vector78:
  pushl $0
  1020b2:	6a 00                	push   $0x0
  pushl $78
  1020b4:	6a 4e                	push   $0x4e
  jmp __alltraps
  1020b6:	e9 27 fd ff ff       	jmp    101de2 <__alltraps>

001020bb <vector79>:
.globl vector79
vector79:
  pushl $0
  1020bb:	6a 00                	push   $0x0
  pushl $79
  1020bd:	6a 4f                	push   $0x4f
  jmp __alltraps
  1020bf:	e9 1e fd ff ff       	jmp    101de2 <__alltraps>

001020c4 <vector80>:
.globl vector80
vector80:
  pushl $0
  1020c4:	6a 00                	push   $0x0
  pushl $80
  1020c6:	6a 50                	push   $0x50
  jmp __alltraps
  1020c8:	e9 15 fd ff ff       	jmp    101de2 <__alltraps>

001020cd <vector81>:
.globl vector81
vector81:
  pushl $0
  1020cd:	6a 00                	push   $0x0
  pushl $81
  1020cf:	6a 51                	push   $0x51
  jmp __alltraps
  1020d1:	e9 0c fd ff ff       	jmp    101de2 <__alltraps>

001020d6 <vector82>:
.globl vector82
vector82:
  pushl $0
  1020d6:	6a 00                	push   $0x0
  pushl $82
  1020d8:	6a 52                	push   $0x52
  jmp __alltraps
  1020da:	e9 03 fd ff ff       	jmp    101de2 <__alltraps>

001020df <vector83>:
.globl vector83
vector83:
  pushl $0
  1020df:	6a 00                	push   $0x0
  pushl $83
  1020e1:	6a 53                	push   $0x53
  jmp __alltraps
  1020e3:	e9 fa fc ff ff       	jmp    101de2 <__alltraps>

001020e8 <vector84>:
.globl vector84
vector84:
  pushl $0
  1020e8:	6a 00                	push   $0x0
  pushl $84
  1020ea:	6a 54                	push   $0x54
  jmp __alltraps
  1020ec:	e9 f1 fc ff ff       	jmp    101de2 <__alltraps>

001020f1 <vector85>:
.globl vector85
vector85:
  pushl $0
  1020f1:	6a 00                	push   $0x0
  pushl $85
  1020f3:	6a 55                	push   $0x55
  jmp __alltraps
  1020f5:	e9 e8 fc ff ff       	jmp    101de2 <__alltraps>

001020fa <vector86>:
.globl vector86
vector86:
  pushl $0
  1020fa:	6a 00                	push   $0x0
  pushl $86
  1020fc:	6a 56                	push   $0x56
  jmp __alltraps
  1020fe:	e9 df fc ff ff       	jmp    101de2 <__alltraps>

00102103 <vector87>:
.globl vector87
vector87:
  pushl $0
  102103:	6a 00                	push   $0x0
  pushl $87
  102105:	6a 57                	push   $0x57
  jmp __alltraps
  102107:	e9 d6 fc ff ff       	jmp    101de2 <__alltraps>

0010210c <vector88>:
.globl vector88
vector88:
  pushl $0
  10210c:	6a 00                	push   $0x0
  pushl $88
  10210e:	6a 58                	push   $0x58
  jmp __alltraps
  102110:	e9 cd fc ff ff       	jmp    101de2 <__alltraps>

00102115 <vector89>:
.globl vector89
vector89:
  pushl $0
  102115:	6a 00                	push   $0x0
  pushl $89
  102117:	6a 59                	push   $0x59
  jmp __alltraps
  102119:	e9 c4 fc ff ff       	jmp    101de2 <__alltraps>

0010211e <vector90>:
.globl vector90
vector90:
  pushl $0
  10211e:	6a 00                	push   $0x0
  pushl $90
  102120:	6a 5a                	push   $0x5a
  jmp __alltraps
  102122:	e9 bb fc ff ff       	jmp    101de2 <__alltraps>

00102127 <vector91>:
.globl vector91
vector91:
  pushl $0
  102127:	6a 00                	push   $0x0
  pushl $91
  102129:	6a 5b                	push   $0x5b
  jmp __alltraps
  10212b:	e9 b2 fc ff ff       	jmp    101de2 <__alltraps>

00102130 <vector92>:
.globl vector92
vector92:
  pushl $0
  102130:	6a 00                	push   $0x0
  pushl $92
  102132:	6a 5c                	push   $0x5c
  jmp __alltraps
  102134:	e9 a9 fc ff ff       	jmp    101de2 <__alltraps>

00102139 <vector93>:
.globl vector93
vector93:
  pushl $0
  102139:	6a 00                	push   $0x0
  pushl $93
  10213b:	6a 5d                	push   $0x5d
  jmp __alltraps
  10213d:	e9 a0 fc ff ff       	jmp    101de2 <__alltraps>

00102142 <vector94>:
.globl vector94
vector94:
  pushl $0
  102142:	6a 00                	push   $0x0
  pushl $94
  102144:	6a 5e                	push   $0x5e
  jmp __alltraps
  102146:	e9 97 fc ff ff       	jmp    101de2 <__alltraps>

0010214b <vector95>:
.globl vector95
vector95:
  pushl $0
  10214b:	6a 00                	push   $0x0
  pushl $95
  10214d:	6a 5f                	push   $0x5f
  jmp __alltraps
  10214f:	e9 8e fc ff ff       	jmp    101de2 <__alltraps>

00102154 <vector96>:
.globl vector96
vector96:
  pushl $0
  102154:	6a 00                	push   $0x0
  pushl $96
  102156:	6a 60                	push   $0x60
  jmp __alltraps
  102158:	e9 85 fc ff ff       	jmp    101de2 <__alltraps>

0010215d <vector97>:
.globl vector97
vector97:
  pushl $0
  10215d:	6a 00                	push   $0x0
  pushl $97
  10215f:	6a 61                	push   $0x61
  jmp __alltraps
  102161:	e9 7c fc ff ff       	jmp    101de2 <__alltraps>

00102166 <vector98>:
.globl vector98
vector98:
  pushl $0
  102166:	6a 00                	push   $0x0
  pushl $98
  102168:	6a 62                	push   $0x62
  jmp __alltraps
  10216a:	e9 73 fc ff ff       	jmp    101de2 <__alltraps>

0010216f <vector99>:
.globl vector99
vector99:
  pushl $0
  10216f:	6a 00                	push   $0x0
  pushl $99
  102171:	6a 63                	push   $0x63
  jmp __alltraps
  102173:	e9 6a fc ff ff       	jmp    101de2 <__alltraps>

00102178 <vector100>:
.globl vector100
vector100:
  pushl $0
  102178:	6a 00                	push   $0x0
  pushl $100
  10217a:	6a 64                	push   $0x64
  jmp __alltraps
  10217c:	e9 61 fc ff ff       	jmp    101de2 <__alltraps>

00102181 <vector101>:
.globl vector101
vector101:
  pushl $0
  102181:	6a 00                	push   $0x0
  pushl $101
  102183:	6a 65                	push   $0x65
  jmp __alltraps
  102185:	e9 58 fc ff ff       	jmp    101de2 <__alltraps>

0010218a <vector102>:
.globl vector102
vector102:
  pushl $0
  10218a:	6a 00                	push   $0x0
  pushl $102
  10218c:	6a 66                	push   $0x66
  jmp __alltraps
  10218e:	e9 4f fc ff ff       	jmp    101de2 <__alltraps>

00102193 <vector103>:
.globl vector103
vector103:
  pushl $0
  102193:	6a 00                	push   $0x0
  pushl $103
  102195:	6a 67                	push   $0x67
  jmp __alltraps
  102197:	e9 46 fc ff ff       	jmp    101de2 <__alltraps>

0010219c <vector104>:
.globl vector104
vector104:
  pushl $0
  10219c:	6a 00                	push   $0x0
  pushl $104
  10219e:	6a 68                	push   $0x68
  jmp __alltraps
  1021a0:	e9 3d fc ff ff       	jmp    101de2 <__alltraps>

001021a5 <vector105>:
.globl vector105
vector105:
  pushl $0
  1021a5:	6a 00                	push   $0x0
  pushl $105
  1021a7:	6a 69                	push   $0x69
  jmp __alltraps
  1021a9:	e9 34 fc ff ff       	jmp    101de2 <__alltraps>

001021ae <vector106>:
.globl vector106
vector106:
  pushl $0
  1021ae:	6a 00                	push   $0x0
  pushl $106
  1021b0:	6a 6a                	push   $0x6a
  jmp __alltraps
  1021b2:	e9 2b fc ff ff       	jmp    101de2 <__alltraps>

001021b7 <vector107>:
.globl vector107
vector107:
  pushl $0
  1021b7:	6a 00                	push   $0x0
  pushl $107
  1021b9:	6a 6b                	push   $0x6b
  jmp __alltraps
  1021bb:	e9 22 fc ff ff       	jmp    101de2 <__alltraps>

001021c0 <vector108>:
.globl vector108
vector108:
  pushl $0
  1021c0:	6a 00                	push   $0x0
  pushl $108
  1021c2:	6a 6c                	push   $0x6c
  jmp __alltraps
  1021c4:	e9 19 fc ff ff       	jmp    101de2 <__alltraps>

001021c9 <vector109>:
.globl vector109
vector109:
  pushl $0
  1021c9:	6a 00                	push   $0x0
  pushl $109
  1021cb:	6a 6d                	push   $0x6d
  jmp __alltraps
  1021cd:	e9 10 fc ff ff       	jmp    101de2 <__alltraps>

001021d2 <vector110>:
.globl vector110
vector110:
  pushl $0
  1021d2:	6a 00                	push   $0x0
  pushl $110
  1021d4:	6a 6e                	push   $0x6e
  jmp __alltraps
  1021d6:	e9 07 fc ff ff       	jmp    101de2 <__alltraps>

001021db <vector111>:
.globl vector111
vector111:
  pushl $0
  1021db:	6a 00                	push   $0x0
  pushl $111
  1021dd:	6a 6f                	push   $0x6f
  jmp __alltraps
  1021df:	e9 fe fb ff ff       	jmp    101de2 <__alltraps>

001021e4 <vector112>:
.globl vector112
vector112:
  pushl $0
  1021e4:	6a 00                	push   $0x0
  pushl $112
  1021e6:	6a 70                	push   $0x70
  jmp __alltraps
  1021e8:	e9 f5 fb ff ff       	jmp    101de2 <__alltraps>

001021ed <vector113>:
.globl vector113
vector113:
  pushl $0
  1021ed:	6a 00                	push   $0x0
  pushl $113
  1021ef:	6a 71                	push   $0x71
  jmp __alltraps
  1021f1:	e9 ec fb ff ff       	jmp    101de2 <__alltraps>

001021f6 <vector114>:
.globl vector114
vector114:
  pushl $0
  1021f6:	6a 00                	push   $0x0
  pushl $114
  1021f8:	6a 72                	push   $0x72
  jmp __alltraps
  1021fa:	e9 e3 fb ff ff       	jmp    101de2 <__alltraps>

001021ff <vector115>:
.globl vector115
vector115:
  pushl $0
  1021ff:	6a 00                	push   $0x0
  pushl $115
  102201:	6a 73                	push   $0x73
  jmp __alltraps
  102203:	e9 da fb ff ff       	jmp    101de2 <__alltraps>

00102208 <vector116>:
.globl vector116
vector116:
  pushl $0
  102208:	6a 00                	push   $0x0
  pushl $116
  10220a:	6a 74                	push   $0x74
  jmp __alltraps
  10220c:	e9 d1 fb ff ff       	jmp    101de2 <__alltraps>

00102211 <vector117>:
.globl vector117
vector117:
  pushl $0
  102211:	6a 00                	push   $0x0
  pushl $117
  102213:	6a 75                	push   $0x75
  jmp __alltraps
  102215:	e9 c8 fb ff ff       	jmp    101de2 <__alltraps>

0010221a <vector118>:
.globl vector118
vector118:
  pushl $0
  10221a:	6a 00                	push   $0x0
  pushl $118
  10221c:	6a 76                	push   $0x76
  jmp __alltraps
  10221e:	e9 bf fb ff ff       	jmp    101de2 <__alltraps>

00102223 <vector119>:
.globl vector119
vector119:
  pushl $0
  102223:	6a 00                	push   $0x0
  pushl $119
  102225:	6a 77                	push   $0x77
  jmp __alltraps
  102227:	e9 b6 fb ff ff       	jmp    101de2 <__alltraps>

0010222c <vector120>:
.globl vector120
vector120:
  pushl $0
  10222c:	6a 00                	push   $0x0
  pushl $120
  10222e:	6a 78                	push   $0x78
  jmp __alltraps
  102230:	e9 ad fb ff ff       	jmp    101de2 <__alltraps>

00102235 <vector121>:
.globl vector121
vector121:
  pushl $0
  102235:	6a 00                	push   $0x0
  pushl $121
  102237:	6a 79                	push   $0x79
  jmp __alltraps
  102239:	e9 a4 fb ff ff       	jmp    101de2 <__alltraps>

0010223e <vector122>:
.globl vector122
vector122:
  pushl $0
  10223e:	6a 00                	push   $0x0
  pushl $122
  102240:	6a 7a                	push   $0x7a
  jmp __alltraps
  102242:	e9 9b fb ff ff       	jmp    101de2 <__alltraps>

00102247 <vector123>:
.globl vector123
vector123:
  pushl $0
  102247:	6a 00                	push   $0x0
  pushl $123
  102249:	6a 7b                	push   $0x7b
  jmp __alltraps
  10224b:	e9 92 fb ff ff       	jmp    101de2 <__alltraps>

00102250 <vector124>:
.globl vector124
vector124:
  pushl $0
  102250:	6a 00                	push   $0x0
  pushl $124
  102252:	6a 7c                	push   $0x7c
  jmp __alltraps
  102254:	e9 89 fb ff ff       	jmp    101de2 <__alltraps>

00102259 <vector125>:
.globl vector125
vector125:
  pushl $0
  102259:	6a 00                	push   $0x0
  pushl $125
  10225b:	6a 7d                	push   $0x7d
  jmp __alltraps
  10225d:	e9 80 fb ff ff       	jmp    101de2 <__alltraps>

00102262 <vector126>:
.globl vector126
vector126:
  pushl $0
  102262:	6a 00                	push   $0x0
  pushl $126
  102264:	6a 7e                	push   $0x7e
  jmp __alltraps
  102266:	e9 77 fb ff ff       	jmp    101de2 <__alltraps>

0010226b <vector127>:
.globl vector127
vector127:
  pushl $0
  10226b:	6a 00                	push   $0x0
  pushl $127
  10226d:	6a 7f                	push   $0x7f
  jmp __alltraps
  10226f:	e9 6e fb ff ff       	jmp    101de2 <__alltraps>

00102274 <vector128>:
.globl vector128
vector128:
  pushl $0
  102274:	6a 00                	push   $0x0
  pushl $128
  102276:	68 80 00 00 00       	push   $0x80
  jmp __alltraps
  10227b:	e9 62 fb ff ff       	jmp    101de2 <__alltraps>

00102280 <vector129>:
.globl vector129
vector129:
  pushl $0
  102280:	6a 00                	push   $0x0
  pushl $129
  102282:	68 81 00 00 00       	push   $0x81
  jmp __alltraps
  102287:	e9 56 fb ff ff       	jmp    101de2 <__alltraps>

0010228c <vector130>:
.globl vector130
vector130:
  pushl $0
  10228c:	6a 00                	push   $0x0
  pushl $130
  10228e:	68 82 00 00 00       	push   $0x82
  jmp __alltraps
  102293:	e9 4a fb ff ff       	jmp    101de2 <__alltraps>

00102298 <vector131>:
.globl vector131
vector131:
  pushl $0
  102298:	6a 00                	push   $0x0
  pushl $131
  10229a:	68 83 00 00 00       	push   $0x83
  jmp __alltraps
  10229f:	e9 3e fb ff ff       	jmp    101de2 <__alltraps>

001022a4 <vector132>:
.globl vector132
vector132:
  pushl $0
  1022a4:	6a 00                	push   $0x0
  pushl $132
  1022a6:	68 84 00 00 00       	push   $0x84
  jmp __alltraps
  1022ab:	e9 32 fb ff ff       	jmp    101de2 <__alltraps>

001022b0 <vector133>:
.globl vector133
vector133:
  pushl $0
  1022b0:	6a 00                	push   $0x0
  pushl $133
  1022b2:	68 85 00 00 00       	push   $0x85
  jmp __alltraps
  1022b7:	e9 26 fb ff ff       	jmp    101de2 <__alltraps>

001022bc <vector134>:
.globl vector134
vector134:
  pushl $0
  1022bc:	6a 00                	push   $0x0
  pushl $134
  1022be:	68 86 00 00 00       	push   $0x86
  jmp __alltraps
  1022c3:	e9 1a fb ff ff       	jmp    101de2 <__alltraps>

001022c8 <vector135>:
.globl vector135
vector135:
  pushl $0
  1022c8:	6a 00                	push   $0x0
  pushl $135
  1022ca:	68 87 00 00 00       	push   $0x87
  jmp __alltraps
  1022cf:	e9 0e fb ff ff       	jmp    101de2 <__alltraps>

001022d4 <vector136>:
.globl vector136
vector136:
  pushl $0
  1022d4:	6a 00                	push   $0x0
  pushl $136
  1022d6:	68 88 00 00 00       	push   $0x88
  jmp __alltraps
  1022db:	e9 02 fb ff ff       	jmp    101de2 <__alltraps>

001022e0 <vector137>:
.globl vector137
vector137:
  pushl $0
  1022e0:	6a 00                	push   $0x0
  pushl $137
  1022e2:	68 89 00 00 00       	push   $0x89
  jmp __alltraps
  1022e7:	e9 f6 fa ff ff       	jmp    101de2 <__alltraps>

001022ec <vector138>:
.globl vector138
vector138:
  pushl $0
  1022ec:	6a 00                	push   $0x0
  pushl $138
  1022ee:	68 8a 00 00 00       	push   $0x8a
  jmp __alltraps
  1022f3:	e9 ea fa ff ff       	jmp    101de2 <__alltraps>

001022f8 <vector139>:
.globl vector139
vector139:
  pushl $0
  1022f8:	6a 00                	push   $0x0
  pushl $139
  1022fa:	68 8b 00 00 00       	push   $0x8b
  jmp __alltraps
  1022ff:	e9 de fa ff ff       	jmp    101de2 <__alltraps>

00102304 <vector140>:
.globl vector140
vector140:
  pushl $0
  102304:	6a 00                	push   $0x0
  pushl $140
  102306:	68 8c 00 00 00       	push   $0x8c
  jmp __alltraps
  10230b:	e9 d2 fa ff ff       	jmp    101de2 <__alltraps>

00102310 <vector141>:
.globl vector141
vector141:
  pushl $0
  102310:	6a 00                	push   $0x0
  pushl $141
  102312:	68 8d 00 00 00       	push   $0x8d
  jmp __alltraps
  102317:	e9 c6 fa ff ff       	jmp    101de2 <__alltraps>

0010231c <vector142>:
.globl vector142
vector142:
  pushl $0
  10231c:	6a 00                	push   $0x0
  pushl $142
  10231e:	68 8e 00 00 00       	push   $0x8e
  jmp __alltraps
  102323:	e9 ba fa ff ff       	jmp    101de2 <__alltraps>

00102328 <vector143>:
.globl vector143
vector143:
  pushl $0
  102328:	6a 00                	push   $0x0
  pushl $143
  10232a:	68 8f 00 00 00       	push   $0x8f
  jmp __alltraps
  10232f:	e9 ae fa ff ff       	jmp    101de2 <__alltraps>

00102334 <vector144>:
.globl vector144
vector144:
  pushl $0
  102334:	6a 00                	push   $0x0
  pushl $144
  102336:	68 90 00 00 00       	push   $0x90
  jmp __alltraps
  10233b:	e9 a2 fa ff ff       	jmp    101de2 <__alltraps>

00102340 <vector145>:
.globl vector145
vector145:
  pushl $0
  102340:	6a 00                	push   $0x0
  pushl $145
  102342:	68 91 00 00 00       	push   $0x91
  jmp __alltraps
  102347:	e9 96 fa ff ff       	jmp    101de2 <__alltraps>

0010234c <vector146>:
.globl vector146
vector146:
  pushl $0
  10234c:	6a 00                	push   $0x0
  pushl $146
  10234e:	68 92 00 00 00       	push   $0x92
  jmp __alltraps
  102353:	e9 8a fa ff ff       	jmp    101de2 <__alltraps>

00102358 <vector147>:
.globl vector147
vector147:
  pushl $0
  102358:	6a 00                	push   $0x0
  pushl $147
  10235a:	68 93 00 00 00       	push   $0x93
  jmp __alltraps
  10235f:	e9 7e fa ff ff       	jmp    101de2 <__alltraps>

00102364 <vector148>:
.globl vector148
vector148:
  pushl $0
  102364:	6a 00                	push   $0x0
  pushl $148
  102366:	68 94 00 00 00       	push   $0x94
  jmp __alltraps
  10236b:	e9 72 fa ff ff       	jmp    101de2 <__alltraps>

00102370 <vector149>:
.globl vector149
vector149:
  pushl $0
  102370:	6a 00                	push   $0x0
  pushl $149
  102372:	68 95 00 00 00       	push   $0x95
  jmp __alltraps
  102377:	e9 66 fa ff ff       	jmp    101de2 <__alltraps>

0010237c <vector150>:
.globl vector150
vector150:
  pushl $0
  10237c:	6a 00                	push   $0x0
  pushl $150
  10237e:	68 96 00 00 00       	push   $0x96
  jmp __alltraps
  102383:	e9 5a fa ff ff       	jmp    101de2 <__alltraps>

00102388 <vector151>:
.globl vector151
vector151:
  pushl $0
  102388:	6a 00                	push   $0x0
  pushl $151
  10238a:	68 97 00 00 00       	push   $0x97
  jmp __alltraps
  10238f:	e9 4e fa ff ff       	jmp    101de2 <__alltraps>

00102394 <vector152>:
.globl vector152
vector152:
  pushl $0
  102394:	6a 00                	push   $0x0
  pushl $152
  102396:	68 98 00 00 00       	push   $0x98
  jmp __alltraps
  10239b:	e9 42 fa ff ff       	jmp    101de2 <__alltraps>

001023a0 <vector153>:
.globl vector153
vector153:
  pushl $0
  1023a0:	6a 00                	push   $0x0
  pushl $153
  1023a2:	68 99 00 00 00       	push   $0x99
  jmp __alltraps
  1023a7:	e9 36 fa ff ff       	jmp    101de2 <__alltraps>

001023ac <vector154>:
.globl vector154
vector154:
  pushl $0
  1023ac:	6a 00                	push   $0x0
  pushl $154
  1023ae:	68 9a 00 00 00       	push   $0x9a
  jmp __alltraps
  1023b3:	e9 2a fa ff ff       	jmp    101de2 <__alltraps>

001023b8 <vector155>:
.globl vector155
vector155:
  pushl $0
  1023b8:	6a 00                	push   $0x0
  pushl $155
  1023ba:	68 9b 00 00 00       	push   $0x9b
  jmp __alltraps
  1023bf:	e9 1e fa ff ff       	jmp    101de2 <__alltraps>

001023c4 <vector156>:
.globl vector156
vector156:
  pushl $0
  1023c4:	6a 00                	push   $0x0
  pushl $156
  1023c6:	68 9c 00 00 00       	push   $0x9c
  jmp __alltraps
  1023cb:	e9 12 fa ff ff       	jmp    101de2 <__alltraps>

001023d0 <vector157>:
.globl vector157
vector157:
  pushl $0
  1023d0:	6a 00                	push   $0x0
  pushl $157
  1023d2:	68 9d 00 00 00       	push   $0x9d
  jmp __alltraps
  1023d7:	e9 06 fa ff ff       	jmp    101de2 <__alltraps>

001023dc <vector158>:
.globl vector158
vector158:
  pushl $0
  1023dc:	6a 00                	push   $0x0
  pushl $158
  1023de:	68 9e 00 00 00       	push   $0x9e
  jmp __alltraps
  1023e3:	e9 fa f9 ff ff       	jmp    101de2 <__alltraps>

001023e8 <vector159>:
.globl vector159
vector159:
  pushl $0
  1023e8:	6a 00                	push   $0x0
  pushl $159
  1023ea:	68 9f 00 00 00       	push   $0x9f
  jmp __alltraps
  1023ef:	e9 ee f9 ff ff       	jmp    101de2 <__alltraps>

001023f4 <vector160>:
.globl vector160
vector160:
  pushl $0
  1023f4:	6a 00                	push   $0x0
  pushl $160
  1023f6:	68 a0 00 00 00       	push   $0xa0
  jmp __alltraps
  1023fb:	e9 e2 f9 ff ff       	jmp    101de2 <__alltraps>

00102400 <vector161>:
.globl vector161
vector161:
  pushl $0
  102400:	6a 00                	push   $0x0
  pushl $161
  102402:	68 a1 00 00 00       	push   $0xa1
  jmp __alltraps
  102407:	e9 d6 f9 ff ff       	jmp    101de2 <__alltraps>

0010240c <vector162>:
.globl vector162
vector162:
  pushl $0
  10240c:	6a 00                	push   $0x0
  pushl $162
  10240e:	68 a2 00 00 00       	push   $0xa2
  jmp __alltraps
  102413:	e9 ca f9 ff ff       	jmp    101de2 <__alltraps>

00102418 <vector163>:
.globl vector163
vector163:
  pushl $0
  102418:	6a 00                	push   $0x0
  pushl $163
  10241a:	68 a3 00 00 00       	push   $0xa3
  jmp __alltraps
  10241f:	e9 be f9 ff ff       	jmp    101de2 <__alltraps>

00102424 <vector164>:
.globl vector164
vector164:
  pushl $0
  102424:	6a 00                	push   $0x0
  pushl $164
  102426:	68 a4 00 00 00       	push   $0xa4
  jmp __alltraps
  10242b:	e9 b2 f9 ff ff       	jmp    101de2 <__alltraps>

00102430 <vector165>:
.globl vector165
vector165:
  pushl $0
  102430:	6a 00                	push   $0x0
  pushl $165
  102432:	68 a5 00 00 00       	push   $0xa5
  jmp __alltraps
  102437:	e9 a6 f9 ff ff       	jmp    101de2 <__alltraps>

0010243c <vector166>:
.globl vector166
vector166:
  pushl $0
  10243c:	6a 00                	push   $0x0
  pushl $166
  10243e:	68 a6 00 00 00       	push   $0xa6
  jmp __alltraps
  102443:	e9 9a f9 ff ff       	jmp    101de2 <__alltraps>

00102448 <vector167>:
.globl vector167
vector167:
  pushl $0
  102448:	6a 00                	push   $0x0
  pushl $167
  10244a:	68 a7 00 00 00       	push   $0xa7
  jmp __alltraps
  10244f:	e9 8e f9 ff ff       	jmp    101de2 <__alltraps>

00102454 <vector168>:
.globl vector168
vector168:
  pushl $0
  102454:	6a 00                	push   $0x0
  pushl $168
  102456:	68 a8 00 00 00       	push   $0xa8
  jmp __alltraps
  10245b:	e9 82 f9 ff ff       	jmp    101de2 <__alltraps>

00102460 <vector169>:
.globl vector169
vector169:
  pushl $0
  102460:	6a 00                	push   $0x0
  pushl $169
  102462:	68 a9 00 00 00       	push   $0xa9
  jmp __alltraps
  102467:	e9 76 f9 ff ff       	jmp    101de2 <__alltraps>

0010246c <vector170>:
.globl vector170
vector170:
  pushl $0
  10246c:	6a 00                	push   $0x0
  pushl $170
  10246e:	68 aa 00 00 00       	push   $0xaa
  jmp __alltraps
  102473:	e9 6a f9 ff ff       	jmp    101de2 <__alltraps>

00102478 <vector171>:
.globl vector171
vector171:
  pushl $0
  102478:	6a 00                	push   $0x0
  pushl $171
  10247a:	68 ab 00 00 00       	push   $0xab
  jmp __alltraps
  10247f:	e9 5e f9 ff ff       	jmp    101de2 <__alltraps>

00102484 <vector172>:
.globl vector172
vector172:
  pushl $0
  102484:	6a 00                	push   $0x0
  pushl $172
  102486:	68 ac 00 00 00       	push   $0xac
  jmp __alltraps
  10248b:	e9 52 f9 ff ff       	jmp    101de2 <__alltraps>

00102490 <vector173>:
.globl vector173
vector173:
  pushl $0
  102490:	6a 00                	push   $0x0
  pushl $173
  102492:	68 ad 00 00 00       	push   $0xad
  jmp __alltraps
  102497:	e9 46 f9 ff ff       	jmp    101de2 <__alltraps>

0010249c <vector174>:
.globl vector174
vector174:
  pushl $0
  10249c:	6a 00                	push   $0x0
  pushl $174
  10249e:	68 ae 00 00 00       	push   $0xae
  jmp __alltraps
  1024a3:	e9 3a f9 ff ff       	jmp    101de2 <__alltraps>

001024a8 <vector175>:
.globl vector175
vector175:
  pushl $0
  1024a8:	6a 00                	push   $0x0
  pushl $175
  1024aa:	68 af 00 00 00       	push   $0xaf
  jmp __alltraps
  1024af:	e9 2e f9 ff ff       	jmp    101de2 <__alltraps>

001024b4 <vector176>:
.globl vector176
vector176:
  pushl $0
  1024b4:	6a 00                	push   $0x0
  pushl $176
  1024b6:	68 b0 00 00 00       	push   $0xb0
  jmp __alltraps
  1024bb:	e9 22 f9 ff ff       	jmp    101de2 <__alltraps>

001024c0 <vector177>:
.globl vector177
vector177:
  pushl $0
  1024c0:	6a 00                	push   $0x0
  pushl $177
  1024c2:	68 b1 00 00 00       	push   $0xb1
  jmp __alltraps
  1024c7:	e9 16 f9 ff ff       	jmp    101de2 <__alltraps>

001024cc <vector178>:
.globl vector178
vector178:
  pushl $0
  1024cc:	6a 00                	push   $0x0
  pushl $178
  1024ce:	68 b2 00 00 00       	push   $0xb2
  jmp __alltraps
  1024d3:	e9 0a f9 ff ff       	jmp    101de2 <__alltraps>

001024d8 <vector179>:
.globl vector179
vector179:
  pushl $0
  1024d8:	6a 00                	push   $0x0
  pushl $179
  1024da:	68 b3 00 00 00       	push   $0xb3
  jmp __alltraps
  1024df:	e9 fe f8 ff ff       	jmp    101de2 <__alltraps>

001024e4 <vector180>:
.globl vector180
vector180:
  pushl $0
  1024e4:	6a 00                	push   $0x0
  pushl $180
  1024e6:	68 b4 00 00 00       	push   $0xb4
  jmp __alltraps
  1024eb:	e9 f2 f8 ff ff       	jmp    101de2 <__alltraps>

001024f0 <vector181>:
.globl vector181
vector181:
  pushl $0
  1024f0:	6a 00                	push   $0x0
  pushl $181
  1024f2:	68 b5 00 00 00       	push   $0xb5
  jmp __alltraps
  1024f7:	e9 e6 f8 ff ff       	jmp    101de2 <__alltraps>

001024fc <vector182>:
.globl vector182
vector182:
  pushl $0
  1024fc:	6a 00                	push   $0x0
  pushl $182
  1024fe:	68 b6 00 00 00       	push   $0xb6
  jmp __alltraps
  102503:	e9 da f8 ff ff       	jmp    101de2 <__alltraps>

00102508 <vector183>:
.globl vector183
vector183:
  pushl $0
  102508:	6a 00                	push   $0x0
  pushl $183
  10250a:	68 b7 00 00 00       	push   $0xb7
  jmp __alltraps
  10250f:	e9 ce f8 ff ff       	jmp    101de2 <__alltraps>

00102514 <vector184>:
.globl vector184
vector184:
  pushl $0
  102514:	6a 00                	push   $0x0
  pushl $184
  102516:	68 b8 00 00 00       	push   $0xb8
  jmp __alltraps
  10251b:	e9 c2 f8 ff ff       	jmp    101de2 <__alltraps>

00102520 <vector185>:
.globl vector185
vector185:
  pushl $0
  102520:	6a 00                	push   $0x0
  pushl $185
  102522:	68 b9 00 00 00       	push   $0xb9
  jmp __alltraps
  102527:	e9 b6 f8 ff ff       	jmp    101de2 <__alltraps>

0010252c <vector186>:
.globl vector186
vector186:
  pushl $0
  10252c:	6a 00                	push   $0x0
  pushl $186
  10252e:	68 ba 00 00 00       	push   $0xba
  jmp __alltraps
  102533:	e9 aa f8 ff ff       	jmp    101de2 <__alltraps>

00102538 <vector187>:
.globl vector187
vector187:
  pushl $0
  102538:	6a 00                	push   $0x0
  pushl $187
  10253a:	68 bb 00 00 00       	push   $0xbb
  jmp __alltraps
  10253f:	e9 9e f8 ff ff       	jmp    101de2 <__alltraps>

00102544 <vector188>:
.globl vector188
vector188:
  pushl $0
  102544:	6a 00                	push   $0x0
  pushl $188
  102546:	68 bc 00 00 00       	push   $0xbc
  jmp __alltraps
  10254b:	e9 92 f8 ff ff       	jmp    101de2 <__alltraps>

00102550 <vector189>:
.globl vector189
vector189:
  pushl $0
  102550:	6a 00                	push   $0x0
  pushl $189
  102552:	68 bd 00 00 00       	push   $0xbd
  jmp __alltraps
  102557:	e9 86 f8 ff ff       	jmp    101de2 <__alltraps>

0010255c <vector190>:
.globl vector190
vector190:
  pushl $0
  10255c:	6a 00                	push   $0x0
  pushl $190
  10255e:	68 be 00 00 00       	push   $0xbe
  jmp __alltraps
  102563:	e9 7a f8 ff ff       	jmp    101de2 <__alltraps>

00102568 <vector191>:
.globl vector191
vector191:
  pushl $0
  102568:	6a 00                	push   $0x0
  pushl $191
  10256a:	68 bf 00 00 00       	push   $0xbf
  jmp __alltraps
  10256f:	e9 6e f8 ff ff       	jmp    101de2 <__alltraps>

00102574 <vector192>:
.globl vector192
vector192:
  pushl $0
  102574:	6a 00                	push   $0x0
  pushl $192
  102576:	68 c0 00 00 00       	push   $0xc0
  jmp __alltraps
  10257b:	e9 62 f8 ff ff       	jmp    101de2 <__alltraps>

00102580 <vector193>:
.globl vector193
vector193:
  pushl $0
  102580:	6a 00                	push   $0x0
  pushl $193
  102582:	68 c1 00 00 00       	push   $0xc1
  jmp __alltraps
  102587:	e9 56 f8 ff ff       	jmp    101de2 <__alltraps>

0010258c <vector194>:
.globl vector194
vector194:
  pushl $0
  10258c:	6a 00                	push   $0x0
  pushl $194
  10258e:	68 c2 00 00 00       	push   $0xc2
  jmp __alltraps
  102593:	e9 4a f8 ff ff       	jmp    101de2 <__alltraps>

00102598 <vector195>:
.globl vector195
vector195:
  pushl $0
  102598:	6a 00                	push   $0x0
  pushl $195
  10259a:	68 c3 00 00 00       	push   $0xc3
  jmp __alltraps
  10259f:	e9 3e f8 ff ff       	jmp    101de2 <__alltraps>

001025a4 <vector196>:
.globl vector196
vector196:
  pushl $0
  1025a4:	6a 00                	push   $0x0
  pushl $196
  1025a6:	68 c4 00 00 00       	push   $0xc4
  jmp __alltraps
  1025ab:	e9 32 f8 ff ff       	jmp    101de2 <__alltraps>

001025b0 <vector197>:
.globl vector197
vector197:
  pushl $0
  1025b0:	6a 00                	push   $0x0
  pushl $197
  1025b2:	68 c5 00 00 00       	push   $0xc5
  jmp __alltraps
  1025b7:	e9 26 f8 ff ff       	jmp    101de2 <__alltraps>

001025bc <vector198>:
.globl vector198
vector198:
  pushl $0
  1025bc:	6a 00                	push   $0x0
  pushl $198
  1025be:	68 c6 00 00 00       	push   $0xc6
  jmp __alltraps
  1025c3:	e9 1a f8 ff ff       	jmp    101de2 <__alltraps>

001025c8 <vector199>:
.globl vector199
vector199:
  pushl $0
  1025c8:	6a 00                	push   $0x0
  pushl $199
  1025ca:	68 c7 00 00 00       	push   $0xc7
  jmp __alltraps
  1025cf:	e9 0e f8 ff ff       	jmp    101de2 <__alltraps>

001025d4 <vector200>:
.globl vector200
vector200:
  pushl $0
  1025d4:	6a 00                	push   $0x0
  pushl $200
  1025d6:	68 c8 00 00 00       	push   $0xc8
  jmp __alltraps
  1025db:	e9 02 f8 ff ff       	jmp    101de2 <__alltraps>

001025e0 <vector201>:
.globl vector201
vector201:
  pushl $0
  1025e0:	6a 00                	push   $0x0
  pushl $201
  1025e2:	68 c9 00 00 00       	push   $0xc9
  jmp __alltraps
  1025e7:	e9 f6 f7 ff ff       	jmp    101de2 <__alltraps>

001025ec <vector202>:
.globl vector202
vector202:
  pushl $0
  1025ec:	6a 00                	push   $0x0
  pushl $202
  1025ee:	68 ca 00 00 00       	push   $0xca
  jmp __alltraps
  1025f3:	e9 ea f7 ff ff       	jmp    101de2 <__alltraps>

001025f8 <vector203>:
.globl vector203
vector203:
  pushl $0
  1025f8:	6a 00                	push   $0x0
  pushl $203
  1025fa:	68 cb 00 00 00       	push   $0xcb
  jmp __alltraps
  1025ff:	e9 de f7 ff ff       	jmp    101de2 <__alltraps>

00102604 <vector204>:
.globl vector204
vector204:
  pushl $0
  102604:	6a 00                	push   $0x0
  pushl $204
  102606:	68 cc 00 00 00       	push   $0xcc
  jmp __alltraps
  10260b:	e9 d2 f7 ff ff       	jmp    101de2 <__alltraps>

00102610 <vector205>:
.globl vector205
vector205:
  pushl $0
  102610:	6a 00                	push   $0x0
  pushl $205
  102612:	68 cd 00 00 00       	push   $0xcd
  jmp __alltraps
  102617:	e9 c6 f7 ff ff       	jmp    101de2 <__alltraps>

0010261c <vector206>:
.globl vector206
vector206:
  pushl $0
  10261c:	6a 00                	push   $0x0
  pushl $206
  10261e:	68 ce 00 00 00       	push   $0xce
  jmp __alltraps
  102623:	e9 ba f7 ff ff       	jmp    101de2 <__alltraps>

00102628 <vector207>:
.globl vector207
vector207:
  pushl $0
  102628:	6a 00                	push   $0x0
  pushl $207
  10262a:	68 cf 00 00 00       	push   $0xcf
  jmp __alltraps
  10262f:	e9 ae f7 ff ff       	jmp    101de2 <__alltraps>

00102634 <vector208>:
.globl vector208
vector208:
  pushl $0
  102634:	6a 00                	push   $0x0
  pushl $208
  102636:	68 d0 00 00 00       	push   $0xd0
  jmp __alltraps
  10263b:	e9 a2 f7 ff ff       	jmp    101de2 <__alltraps>

00102640 <vector209>:
.globl vector209
vector209:
  pushl $0
  102640:	6a 00                	push   $0x0
  pushl $209
  102642:	68 d1 00 00 00       	push   $0xd1
  jmp __alltraps
  102647:	e9 96 f7 ff ff       	jmp    101de2 <__alltraps>

0010264c <vector210>:
.globl vector210
vector210:
  pushl $0
  10264c:	6a 00                	push   $0x0
  pushl $210
  10264e:	68 d2 00 00 00       	push   $0xd2
  jmp __alltraps
  102653:	e9 8a f7 ff ff       	jmp    101de2 <__alltraps>

00102658 <vector211>:
.globl vector211
vector211:
  pushl $0
  102658:	6a 00                	push   $0x0
  pushl $211
  10265a:	68 d3 00 00 00       	push   $0xd3
  jmp __alltraps
  10265f:	e9 7e f7 ff ff       	jmp    101de2 <__alltraps>

00102664 <vector212>:
.globl vector212
vector212:
  pushl $0
  102664:	6a 00                	push   $0x0
  pushl $212
  102666:	68 d4 00 00 00       	push   $0xd4
  jmp __alltraps
  10266b:	e9 72 f7 ff ff       	jmp    101de2 <__alltraps>

00102670 <vector213>:
.globl vector213
vector213:
  pushl $0
  102670:	6a 00                	push   $0x0
  pushl $213
  102672:	68 d5 00 00 00       	push   $0xd5
  jmp __alltraps
  102677:	e9 66 f7 ff ff       	jmp    101de2 <__alltraps>

0010267c <vector214>:
.globl vector214
vector214:
  pushl $0
  10267c:	6a 00                	push   $0x0
  pushl $214
  10267e:	68 d6 00 00 00       	push   $0xd6
  jmp __alltraps
  102683:	e9 5a f7 ff ff       	jmp    101de2 <__alltraps>

00102688 <vector215>:
.globl vector215
vector215:
  pushl $0
  102688:	6a 00                	push   $0x0
  pushl $215
  10268a:	68 d7 00 00 00       	push   $0xd7
  jmp __alltraps
  10268f:	e9 4e f7 ff ff       	jmp    101de2 <__alltraps>

00102694 <vector216>:
.globl vector216
vector216:
  pushl $0
  102694:	6a 00                	push   $0x0
  pushl $216
  102696:	68 d8 00 00 00       	push   $0xd8
  jmp __alltraps
  10269b:	e9 42 f7 ff ff       	jmp    101de2 <__alltraps>

001026a0 <vector217>:
.globl vector217
vector217:
  pushl $0
  1026a0:	6a 00                	push   $0x0
  pushl $217
  1026a2:	68 d9 00 00 00       	push   $0xd9
  jmp __alltraps
  1026a7:	e9 36 f7 ff ff       	jmp    101de2 <__alltraps>

001026ac <vector218>:
.globl vector218
vector218:
  pushl $0
  1026ac:	6a 00                	push   $0x0
  pushl $218
  1026ae:	68 da 00 00 00       	push   $0xda
  jmp __alltraps
  1026b3:	e9 2a f7 ff ff       	jmp    101de2 <__alltraps>

001026b8 <vector219>:
.globl vector219
vector219:
  pushl $0
  1026b8:	6a 00                	push   $0x0
  pushl $219
  1026ba:	68 db 00 00 00       	push   $0xdb
  jmp __alltraps
  1026bf:	e9 1e f7 ff ff       	jmp    101de2 <__alltraps>

001026c4 <vector220>:
.globl vector220
vector220:
  pushl $0
  1026c4:	6a 00                	push   $0x0
  pushl $220
  1026c6:	68 dc 00 00 00       	push   $0xdc
  jmp __alltraps
  1026cb:	e9 12 f7 ff ff       	jmp    101de2 <__alltraps>

001026d0 <vector221>:
.globl vector221
vector221:
  pushl $0
  1026d0:	6a 00                	push   $0x0
  pushl $221
  1026d2:	68 dd 00 00 00       	push   $0xdd
  jmp __alltraps
  1026d7:	e9 06 f7 ff ff       	jmp    101de2 <__alltraps>

001026dc <vector222>:
.globl vector222
vector222:
  pushl $0
  1026dc:	6a 00                	push   $0x0
  pushl $222
  1026de:	68 de 00 00 00       	push   $0xde
  jmp __alltraps
  1026e3:	e9 fa f6 ff ff       	jmp    101de2 <__alltraps>

001026e8 <vector223>:
.globl vector223
vector223:
  pushl $0
  1026e8:	6a 00                	push   $0x0
  pushl $223
  1026ea:	68 df 00 00 00       	push   $0xdf
  jmp __alltraps
  1026ef:	e9 ee f6 ff ff       	jmp    101de2 <__alltraps>

001026f4 <vector224>:
.globl vector224
vector224:
  pushl $0
  1026f4:	6a 00                	push   $0x0
  pushl $224
  1026f6:	68 e0 00 00 00       	push   $0xe0
  jmp __alltraps
  1026fb:	e9 e2 f6 ff ff       	jmp    101de2 <__alltraps>

00102700 <vector225>:
.globl vector225
vector225:
  pushl $0
  102700:	6a 00                	push   $0x0
  pushl $225
  102702:	68 e1 00 00 00       	push   $0xe1
  jmp __alltraps
  102707:	e9 d6 f6 ff ff       	jmp    101de2 <__alltraps>

0010270c <vector226>:
.globl vector226
vector226:
  pushl $0
  10270c:	6a 00                	push   $0x0
  pushl $226
  10270e:	68 e2 00 00 00       	push   $0xe2
  jmp __alltraps
  102713:	e9 ca f6 ff ff       	jmp    101de2 <__alltraps>

00102718 <vector227>:
.globl vector227
vector227:
  pushl $0
  102718:	6a 00                	push   $0x0
  pushl $227
  10271a:	68 e3 00 00 00       	push   $0xe3
  jmp __alltraps
  10271f:	e9 be f6 ff ff       	jmp    101de2 <__alltraps>

00102724 <vector228>:
.globl vector228
vector228:
  pushl $0
  102724:	6a 00                	push   $0x0
  pushl $228
  102726:	68 e4 00 00 00       	push   $0xe4
  jmp __alltraps
  10272b:	e9 b2 f6 ff ff       	jmp    101de2 <__alltraps>

00102730 <vector229>:
.globl vector229
vector229:
  pushl $0
  102730:	6a 00                	push   $0x0
  pushl $229
  102732:	68 e5 00 00 00       	push   $0xe5
  jmp __alltraps
  102737:	e9 a6 f6 ff ff       	jmp    101de2 <__alltraps>

0010273c <vector230>:
.globl vector230
vector230:
  pushl $0
  10273c:	6a 00                	push   $0x0
  pushl $230
  10273e:	68 e6 00 00 00       	push   $0xe6
  jmp __alltraps
  102743:	e9 9a f6 ff ff       	jmp    101de2 <__alltraps>

00102748 <vector231>:
.globl vector231
vector231:
  pushl $0
  102748:	6a 00                	push   $0x0
  pushl $231
  10274a:	68 e7 00 00 00       	push   $0xe7
  jmp __alltraps
  10274f:	e9 8e f6 ff ff       	jmp    101de2 <__alltraps>

00102754 <vector232>:
.globl vector232
vector232:
  pushl $0
  102754:	6a 00                	push   $0x0
  pushl $232
  102756:	68 e8 00 00 00       	push   $0xe8
  jmp __alltraps
  10275b:	e9 82 f6 ff ff       	jmp    101de2 <__alltraps>

00102760 <vector233>:
.globl vector233
vector233:
  pushl $0
  102760:	6a 00                	push   $0x0
  pushl $233
  102762:	68 e9 00 00 00       	push   $0xe9
  jmp __alltraps
  102767:	e9 76 f6 ff ff       	jmp    101de2 <__alltraps>

0010276c <vector234>:
.globl vector234
vector234:
  pushl $0
  10276c:	6a 00                	push   $0x0
  pushl $234
  10276e:	68 ea 00 00 00       	push   $0xea
  jmp __alltraps
  102773:	e9 6a f6 ff ff       	jmp    101de2 <__alltraps>

00102778 <vector235>:
.globl vector235
vector235:
  pushl $0
  102778:	6a 00                	push   $0x0
  pushl $235
  10277a:	68 eb 00 00 00       	push   $0xeb
  jmp __alltraps
  10277f:	e9 5e f6 ff ff       	jmp    101de2 <__alltraps>

00102784 <vector236>:
.globl vector236
vector236:
  pushl $0
  102784:	6a 00                	push   $0x0
  pushl $236
  102786:	68 ec 00 00 00       	push   $0xec
  jmp __alltraps
  10278b:	e9 52 f6 ff ff       	jmp    101de2 <__alltraps>

00102790 <vector237>:
.globl vector237
vector237:
  pushl $0
  102790:	6a 00                	push   $0x0
  pushl $237
  102792:	68 ed 00 00 00       	push   $0xed
  jmp __alltraps
  102797:	e9 46 f6 ff ff       	jmp    101de2 <__alltraps>

0010279c <vector238>:
.globl vector238
vector238:
  pushl $0
  10279c:	6a 00                	push   $0x0
  pushl $238
  10279e:	68 ee 00 00 00       	push   $0xee
  jmp __alltraps
  1027a3:	e9 3a f6 ff ff       	jmp    101de2 <__alltraps>

001027a8 <vector239>:
.globl vector239
vector239:
  pushl $0
  1027a8:	6a 00                	push   $0x0
  pushl $239
  1027aa:	68 ef 00 00 00       	push   $0xef
  jmp __alltraps
  1027af:	e9 2e f6 ff ff       	jmp    101de2 <__alltraps>

001027b4 <vector240>:
.globl vector240
vector240:
  pushl $0
  1027b4:	6a 00                	push   $0x0
  pushl $240
  1027b6:	68 f0 00 00 00       	push   $0xf0
  jmp __alltraps
  1027bb:	e9 22 f6 ff ff       	jmp    101de2 <__alltraps>

001027c0 <vector241>:
.globl vector241
vector241:
  pushl $0
  1027c0:	6a 00                	push   $0x0
  pushl $241
  1027c2:	68 f1 00 00 00       	push   $0xf1
  jmp __alltraps
  1027c7:	e9 16 f6 ff ff       	jmp    101de2 <__alltraps>

001027cc <vector242>:
.globl vector242
vector242:
  pushl $0
  1027cc:	6a 00                	push   $0x0
  pushl $242
  1027ce:	68 f2 00 00 00       	push   $0xf2
  jmp __alltraps
  1027d3:	e9 0a f6 ff ff       	jmp    101de2 <__alltraps>

001027d8 <vector243>:
.globl vector243
vector243:
  pushl $0
  1027d8:	6a 00                	push   $0x0
  pushl $243
  1027da:	68 f3 00 00 00       	push   $0xf3
  jmp __alltraps
  1027df:	e9 fe f5 ff ff       	jmp    101de2 <__alltraps>

001027e4 <vector244>:
.globl vector244
vector244:
  pushl $0
  1027e4:	6a 00                	push   $0x0
  pushl $244
  1027e6:	68 f4 00 00 00       	push   $0xf4
  jmp __alltraps
  1027eb:	e9 f2 f5 ff ff       	jmp    101de2 <__alltraps>

001027f0 <vector245>:
.globl vector245
vector245:
  pushl $0
  1027f0:	6a 00                	push   $0x0
  pushl $245
  1027f2:	68 f5 00 00 00       	push   $0xf5
  jmp __alltraps
  1027f7:	e9 e6 f5 ff ff       	jmp    101de2 <__alltraps>

001027fc <vector246>:
.globl vector246
vector246:
  pushl $0
  1027fc:	6a 00                	push   $0x0
  pushl $246
  1027fe:	68 f6 00 00 00       	push   $0xf6
  jmp __alltraps
  102803:	e9 da f5 ff ff       	jmp    101de2 <__alltraps>

00102808 <vector247>:
.globl vector247
vector247:
  pushl $0
  102808:	6a 00                	push   $0x0
  pushl $247
  10280a:	68 f7 00 00 00       	push   $0xf7
  jmp __alltraps
  10280f:	e9 ce f5 ff ff       	jmp    101de2 <__alltraps>

00102814 <vector248>:
.globl vector248
vector248:
  pushl $0
  102814:	6a 00                	push   $0x0
  pushl $248
  102816:	68 f8 00 00 00       	push   $0xf8
  jmp __alltraps
  10281b:	e9 c2 f5 ff ff       	jmp    101de2 <__alltraps>

00102820 <vector249>:
.globl vector249
vector249:
  pushl $0
  102820:	6a 00                	push   $0x0
  pushl $249
  102822:	68 f9 00 00 00       	push   $0xf9
  jmp __alltraps
  102827:	e9 b6 f5 ff ff       	jmp    101de2 <__alltraps>

0010282c <vector250>:
.globl vector250
vector250:
  pushl $0
  10282c:	6a 00                	push   $0x0
  pushl $250
  10282e:	68 fa 00 00 00       	push   $0xfa
  jmp __alltraps
  102833:	e9 aa f5 ff ff       	jmp    101de2 <__alltraps>

00102838 <vector251>:
.globl vector251
vector251:
  pushl $0
  102838:	6a 00                	push   $0x0
  pushl $251
  10283a:	68 fb 00 00 00       	push   $0xfb
  jmp __alltraps
  10283f:	e9 9e f5 ff ff       	jmp    101de2 <__alltraps>

00102844 <vector252>:
.globl vector252
vector252:
  pushl $0
  102844:	6a 00                	push   $0x0
  pushl $252
  102846:	68 fc 00 00 00       	push   $0xfc
  jmp __alltraps
  10284b:	e9 92 f5 ff ff       	jmp    101de2 <__alltraps>

00102850 <vector253>:
.globl vector253
vector253:
  pushl $0
  102850:	6a 00                	push   $0x0
  pushl $253
  102852:	68 fd 00 00 00       	push   $0xfd
  jmp __alltraps
  102857:	e9 86 f5 ff ff       	jmp    101de2 <__alltraps>

0010285c <vector254>:
.globl vector254
vector254:
  pushl $0
  10285c:	6a 00                	push   $0x0
  pushl $254
  10285e:	68 fe 00 00 00       	push   $0xfe
  jmp __alltraps
  102863:	e9 7a f5 ff ff       	jmp    101de2 <__alltraps>

00102868 <vector255>:
.globl vector255
vector255:
  pushl $0
  102868:	6a 00                	push   $0x0
  pushl $255
  10286a:	68 ff 00 00 00       	push   $0xff
  jmp __alltraps
  10286f:	e9 6e f5 ff ff       	jmp    101de2 <__alltraps>

00102874 <page2ppn>:

extern struct Page *pages;
extern size_t npage;

static inline ppn_t
page2ppn(struct Page *page) {
  102874:	55                   	push   %ebp
  102875:	89 e5                	mov    %esp,%ebp
    return page - pages;
  102877:	8b 55 08             	mov    0x8(%ebp),%edx
  10287a:	a1 64 89 11 00       	mov    0x118964,%eax
  10287f:	29 c2                	sub    %eax,%edx
  102881:	89 d0                	mov    %edx,%eax
  102883:	c1 f8 02             	sar    $0x2,%eax
  102886:	69 c0 cd cc cc cc    	imul   $0xcccccccd,%eax,%eax
}
  10288c:	5d                   	pop    %ebp
  10288d:	c3                   	ret    

0010288e <page2pa>:

static inline uintptr_t
page2pa(struct Page *page) {
  10288e:	55                   	push   %ebp
  10288f:	89 e5                	mov    %esp,%ebp
  102891:	83 ec 04             	sub    $0x4,%esp
    return page2ppn(page) << PGSHIFT;
  102894:	8b 45 08             	mov    0x8(%ebp),%eax
  102897:	89 04 24             	mov    %eax,(%esp)
  10289a:	e8 d5 ff ff ff       	call   102874 <page2ppn>
  10289f:	c1 e0 0c             	shl    $0xc,%eax
}
  1028a2:	c9                   	leave  
  1028a3:	c3                   	ret    

001028a4 <page_ref>:
pde2page(pde_t pde) {
    return pa2page(PDE_ADDR(pde));
}

static inline int
page_ref(struct Page *page) {
  1028a4:	55                   	push   %ebp
  1028a5:	89 e5                	mov    %esp,%ebp
    return page->ref;
  1028a7:	8b 45 08             	mov    0x8(%ebp),%eax
  1028aa:	8b 00                	mov    (%eax),%eax
}
  1028ac:	5d                   	pop    %ebp
  1028ad:	c3                   	ret    

001028ae <set_page_ref>:

static inline void
set_page_ref(struct Page *page, int val) {
  1028ae:	55                   	push   %ebp
  1028af:	89 e5                	mov    %esp,%ebp
    page->ref = val;
  1028b1:	8b 45 08             	mov    0x8(%ebp),%eax
  1028b4:	8b 55 0c             	mov    0xc(%ebp),%edx
  1028b7:	89 10                	mov    %edx,(%eax)
}
  1028b9:	5d                   	pop    %ebp
  1028ba:	c3                   	ret    

001028bb <default_init>:

#define free_list (free_area.free_list)
#define nr_free (free_area.nr_free)

static void
default_init(void) {
  1028bb:	55                   	push   %ebp
  1028bc:	89 e5                	mov    %esp,%ebp
  1028be:	83 ec 10             	sub    $0x10,%esp
  1028c1:	c7 45 fc 50 89 11 00 	movl   $0x118950,-0x4(%ebp)
 * list_init - initialize a new entry
 * @elm:        new entry to be initialized
 * */
static inline void
list_init(list_entry_t *elm) {
    elm->prev = elm->next = elm;
  1028c8:	8b 45 fc             	mov    -0x4(%ebp),%eax
  1028cb:	8b 55 fc             	mov    -0x4(%ebp),%edx
  1028ce:	89 50 04             	mov    %edx,0x4(%eax)
  1028d1:	8b 45 fc             	mov    -0x4(%ebp),%eax
  1028d4:	8b 50 04             	mov    0x4(%eax),%edx
  1028d7:	8b 45 fc             	mov    -0x4(%ebp),%eax
  1028da:	89 10                	mov    %edx,(%eax)
    list_init(&free_list);
    nr_free = 0;
  1028dc:	c7 05 58 89 11 00 00 	movl   $0x0,0x118958
  1028e3:	00 00 00 
}
  1028e6:	c9                   	leave  
  1028e7:	c3                   	ret    

001028e8 <default_init_memmap>:

static void
default_init_memmap(struct Page *base, size_t n) {
  1028e8:	55                   	push   %ebp
  1028e9:	89 e5                	mov    %esp,%ebp
  1028eb:	83 ec 48             	sub    $0x48,%esp
    assert(n > 0);
  1028ee:	83 7d 0c 00          	cmpl   $0x0,0xc(%ebp)
  1028f2:	75 24                	jne    102918 <default_init_memmap+0x30>
  1028f4:	c7 44 24 0c f0 65 10 	movl   $0x1065f0,0xc(%esp)
  1028fb:	00 
  1028fc:	c7 44 24 08 f6 65 10 	movl   $0x1065f6,0x8(%esp)
  102903:	00 
  102904:	c7 44 24 04 46 00 00 	movl   $0x46,0x4(%esp)
  10290b:	00 
  10290c:	c7 04 24 0b 66 10 00 	movl   $0x10660b,(%esp)
  102913:	e8 ae e3 ff ff       	call   100cc6 <__panic>
    struct Page *p = base;
  102918:	8b 45 08             	mov    0x8(%ebp),%eax
  10291b:	89 45 f4             	mov    %eax,-0xc(%ebp)
    for (; p != base + n; p ++) {
  10291e:	e9 dc 00 00 00       	jmp    1029ff <default_init_memmap+0x117>
        assert(PageReserved(p));
  102923:	8b 45 f4             	mov    -0xc(%ebp),%eax
  102926:	83 c0 04             	add    $0x4,%eax
  102929:	c7 45 f0 00 00 00 00 	movl   $0x0,-0x10(%ebp)
  102930:	89 45 ec             	mov    %eax,-0x14(%ebp)
 * @addr:   the address to count from
 * */
static inline bool
test_bit(int nr, volatile void *addr) {
    int oldbit;
    asm volatile ("btl %2, %1; sbbl %0,%0" : "=r" (oldbit) : "m" (*(volatile long *)addr), "Ir" (nr));
  102933:	8b 45 ec             	mov    -0x14(%ebp),%eax
  102936:	8b 55 f0             	mov    -0x10(%ebp),%edx
  102939:	0f a3 10             	bt     %edx,(%eax)
  10293c:	19 c0                	sbb    %eax,%eax
  10293e:	89 45 e8             	mov    %eax,-0x18(%ebp)
    return oldbit != 0;
  102941:	83 7d e8 00          	cmpl   $0x0,-0x18(%ebp)
  102945:	0f 95 c0             	setne  %al
  102948:	0f b6 c0             	movzbl %al,%eax
  10294b:	85 c0                	test   %eax,%eax
  10294d:	75 24                	jne    102973 <default_init_memmap+0x8b>
  10294f:	c7 44 24 0c 21 66 10 	movl   $0x106621,0xc(%esp)
  102956:	00 
  102957:	c7 44 24 08 f6 65 10 	movl   $0x1065f6,0x8(%esp)
  10295e:	00 
  10295f:	c7 44 24 04 49 00 00 	movl   $0x49,0x4(%esp)
  102966:	00 
  102967:	c7 04 24 0b 66 10 00 	movl   $0x10660b,(%esp)
  10296e:	e8 53 e3 ff ff       	call   100cc6 <__panic>
        p->flags = 0;
  102973:	8b 45 f4             	mov    -0xc(%ebp),%eax
  102976:	c7 40 04 00 00 00 00 	movl   $0x0,0x4(%eax)
        SetPageProperty(p);
  10297d:	8b 45 f4             	mov    -0xc(%ebp),%eax
  102980:	83 c0 04             	add    $0x4,%eax
  102983:	c7 45 e4 01 00 00 00 	movl   $0x1,-0x1c(%ebp)
  10298a:	89 45 e0             	mov    %eax,-0x20(%ebp)
 * Note that @nr may be almost arbitrarily large; this function is not
 * restricted to acting on a single-word quantity.
 * */
static inline void
set_bit(int nr, volatile void *addr) {
    asm volatile ("btsl %1, %0" :"=m" (*(volatile long *)addr) : "Ir" (nr));
  10298d:	8b 45 e0             	mov    -0x20(%ebp),%eax
  102990:	8b 55 e4             	mov    -0x1c(%ebp),%edx
  102993:	0f ab 10             	bts    %edx,(%eax)
        p->property = 0;
  102996:	8b 45 f4             	mov    -0xc(%ebp),%eax
  102999:	c7 40 08 00 00 00 00 	movl   $0x0,0x8(%eax)
        set_page_ref(p, 0);
  1029a0:	c7 44 24 04 00 00 00 	movl   $0x0,0x4(%esp)
  1029a7:	00 
  1029a8:	8b 45 f4             	mov    -0xc(%ebp),%eax
  1029ab:	89 04 24             	mov    %eax,(%esp)
  1029ae:	e8 fb fe ff ff       	call   1028ae <set_page_ref>
        list_add_before(&free_list, &(p->page_link));
  1029b3:	8b 45 f4             	mov    -0xc(%ebp),%eax
  1029b6:	83 c0 0c             	add    $0xc,%eax
  1029b9:	c7 45 dc 50 89 11 00 	movl   $0x118950,-0x24(%ebp)
  1029c0:	89 45 d8             	mov    %eax,-0x28(%ebp)
 * Insert the new element @elm *before* the element @listelm which
 * is already in the list.
 * */
static inline void
list_add_before(list_entry_t *listelm, list_entry_t *elm) {
    __list_add(elm, listelm->prev, listelm);
  1029c3:	8b 45 dc             	mov    -0x24(%ebp),%eax
  1029c6:	8b 00                	mov    (%eax),%eax
  1029c8:	8b 55 d8             	mov    -0x28(%ebp),%edx
  1029cb:	89 55 d4             	mov    %edx,-0x2c(%ebp)
  1029ce:	89 45 d0             	mov    %eax,-0x30(%ebp)
  1029d1:	8b 45 dc             	mov    -0x24(%ebp),%eax
  1029d4:	89 45 cc             	mov    %eax,-0x34(%ebp)
 * This is only for internal list manipulation where we know
 * the prev/next entries already!
 * */
static inline void
__list_add(list_entry_t *elm, list_entry_t *prev, list_entry_t *next) {
    prev->next = next->prev = elm;
  1029d7:	8b 45 cc             	mov    -0x34(%ebp),%eax
  1029da:	8b 55 d4             	mov    -0x2c(%ebp),%edx
  1029dd:	89 10                	mov    %edx,(%eax)
  1029df:	8b 45 cc             	mov    -0x34(%ebp),%eax
  1029e2:	8b 10                	mov    (%eax),%edx
  1029e4:	8b 45 d0             	mov    -0x30(%ebp),%eax
  1029e7:	89 50 04             	mov    %edx,0x4(%eax)
    elm->next = next;
  1029ea:	8b 45 d4             	mov    -0x2c(%ebp),%eax
  1029ed:	8b 55 cc             	mov    -0x34(%ebp),%edx
  1029f0:	89 50 04             	mov    %edx,0x4(%eax)
    elm->prev = prev;
  1029f3:	8b 45 d4             	mov    -0x2c(%ebp),%eax
  1029f6:	8b 55 d0             	mov    -0x30(%ebp),%edx
  1029f9:	89 10                	mov    %edx,(%eax)

static void
default_init_memmap(struct Page *base, size_t n) {
    assert(n > 0);
    struct Page *p = base;
    for (; p != base + n; p ++) {
  1029fb:	83 45 f4 14          	addl   $0x14,-0xc(%ebp)
  1029ff:	8b 55 0c             	mov    0xc(%ebp),%edx
  102a02:	89 d0                	mov    %edx,%eax
  102a04:	c1 e0 02             	shl    $0x2,%eax
  102a07:	01 d0                	add    %edx,%eax
  102a09:	c1 e0 02             	shl    $0x2,%eax
  102a0c:	89 c2                	mov    %eax,%edx
  102a0e:	8b 45 08             	mov    0x8(%ebp),%eax
  102a11:	01 d0                	add    %edx,%eax
  102a13:	3b 45 f4             	cmp    -0xc(%ebp),%eax
  102a16:	0f 85 07 ff ff ff    	jne    102923 <default_init_memmap+0x3b>
        SetPageProperty(p);
        p->property = 0;
        set_page_ref(p, 0);
        list_add_before(&free_list, &(p->page_link));
    }
    base->property = n;
  102a1c:	8b 45 08             	mov    0x8(%ebp),%eax
  102a1f:	8b 55 0c             	mov    0xc(%ebp),%edx
  102a22:	89 50 08             	mov    %edx,0x8(%eax)
    nr_free += n;
  102a25:	8b 15 58 89 11 00    	mov    0x118958,%edx
  102a2b:	8b 45 0c             	mov    0xc(%ebp),%eax
  102a2e:	01 d0                	add    %edx,%eax
  102a30:	a3 58 89 11 00       	mov    %eax,0x118958
}
  102a35:	c9                   	leave  
  102a36:	c3                   	ret    

00102a37 <default_alloc_pages>:

static struct Page *
default_alloc_pages(size_t n) {
  102a37:	55                   	push   %ebp
  102a38:	89 e5                	mov    %esp,%ebp
  102a3a:	83 ec 58             	sub    $0x58,%esp
    assert(n > 0);
  102a3d:	83 7d 08 00          	cmpl   $0x0,0x8(%ebp)
  102a41:	75 24                	jne    102a67 <default_alloc_pages+0x30>
  102a43:	c7 44 24 0c f0 65 10 	movl   $0x1065f0,0xc(%esp)
  102a4a:	00 
  102a4b:	c7 44 24 08 f6 65 10 	movl   $0x1065f6,0x8(%esp)
  102a52:	00 
  102a53:	c7 44 24 04 56 00 00 	movl   $0x56,0x4(%esp)
  102a5a:	00 
  102a5b:	c7 04 24 0b 66 10 00 	movl   $0x10660b,(%esp)
  102a62:	e8 5f e2 ff ff       	call   100cc6 <__panic>
    if (n > nr_free) {
  102a67:	a1 58 89 11 00       	mov    0x118958,%eax
  102a6c:	3b 45 08             	cmp    0x8(%ebp),%eax
  102a6f:	73 0a                	jae    102a7b <default_alloc_pages+0x44>
        return NULL;
  102a71:	b8 00 00 00 00       	mov    $0x0,%eax
  102a76:	e9 0d 01 00 00       	jmp    102b88 <default_alloc_pages+0x151>
    }
    struct Page *page = NULL;
  102a7b:	c7 45 ec 00 00 00 00 	movl   $0x0,-0x14(%ebp)
    list_entry_t *le = &free_list;
  102a82:	c7 45 f4 50 89 11 00 	movl   $0x118950,-0xc(%ebp)
    list_entry_t *temp;
    while ((le = list_next(le)) != &free_list) {
  102a89:	e9 d9 00 00 00       	jmp    102b67 <default_alloc_pages+0x130>
        page = le2page(le, page_link);
  102a8e:	8b 45 f4             	mov    -0xc(%ebp),%eax
  102a91:	83 e8 0c             	sub    $0xc,%eax
  102a94:	89 45 ec             	mov    %eax,-0x14(%ebp)
        if (page->property >= n) {
  102a97:	8b 45 ec             	mov    -0x14(%ebp),%eax
  102a9a:	8b 40 08             	mov    0x8(%eax),%eax
  102a9d:	3b 45 08             	cmp    0x8(%ebp),%eax
  102aa0:	0f 82 c1 00 00 00    	jb     102b67 <default_alloc_pages+0x130>
            int i;
            for (i=0; i<n; i++) {
  102aa6:	c7 45 f0 00 00 00 00 	movl   $0x0,-0x10(%ebp)
  102aad:	eb 7c                	jmp    102b2b <default_alloc_pages+0xf4>
                 struct Page* tempp = le2page(le, page_link);
  102aaf:	8b 45 f4             	mov    -0xc(%ebp),%eax
  102ab2:	83 e8 0c             	sub    $0xc,%eax
  102ab5:	89 45 e8             	mov    %eax,-0x18(%ebp)
                 SetPageReserved(tempp);
  102ab8:	8b 45 e8             	mov    -0x18(%ebp),%eax
  102abb:	83 c0 04             	add    $0x4,%eax
  102abe:	c7 45 dc 00 00 00 00 	movl   $0x0,-0x24(%ebp)
  102ac5:	89 45 d8             	mov    %eax,-0x28(%ebp)
  102ac8:	8b 45 d8             	mov    -0x28(%ebp),%eax
  102acb:	8b 55 dc             	mov    -0x24(%ebp),%edx
  102ace:	0f ab 10             	bts    %edx,(%eax)
                 ClearPageProperty(tempp);
  102ad1:	8b 45 e8             	mov    -0x18(%ebp),%eax
  102ad4:	83 c0 04             	add    $0x4,%eax
  102ad7:	c7 45 d4 01 00 00 00 	movl   $0x1,-0x2c(%ebp)
  102ade:	89 45 d0             	mov    %eax,-0x30(%ebp)
 * @nr:     the bit to clear
 * @addr:   the address to start counting from
 * */
static inline void
clear_bit(int nr, volatile void *addr) {
    asm volatile ("btrl %1, %0" :"=m" (*(volatile long *)addr) : "Ir" (nr));
  102ae1:	8b 45 d0             	mov    -0x30(%ebp),%eax
  102ae4:	8b 55 d4             	mov    -0x2c(%ebp),%edx
  102ae7:	0f b3 10             	btr    %edx,(%eax)
  102aea:	8b 45 f4             	mov    -0xc(%ebp),%eax
  102aed:	89 45 cc             	mov    %eax,-0x34(%ebp)
 * list_next - get the next entry
 * @listelm:    the list head
 **/
static inline list_entry_t *
list_next(list_entry_t *listelm) {
    return listelm->next;
  102af0:	8b 45 cc             	mov    -0x34(%ebp),%eax
  102af3:	8b 40 04             	mov    0x4(%eax),%eax
                 temp = list_next(le);
  102af6:	89 45 e4             	mov    %eax,-0x1c(%ebp)
  102af9:	8b 45 f4             	mov    -0xc(%ebp),%eax
  102afc:	89 45 c8             	mov    %eax,-0x38(%ebp)
 * Note: list_empty() on @listelm does not return true after this, the entry is
 * in an undefined state.
 * */
static inline void
list_del(list_entry_t *listelm) {
    __list_del(listelm->prev, listelm->next);
  102aff:	8b 45 c8             	mov    -0x38(%ebp),%eax
  102b02:	8b 40 04             	mov    0x4(%eax),%eax
  102b05:	8b 55 c8             	mov    -0x38(%ebp),%edx
  102b08:	8b 12                	mov    (%edx),%edx
  102b0a:	89 55 c4             	mov    %edx,-0x3c(%ebp)
  102b0d:	89 45 c0             	mov    %eax,-0x40(%ebp)
 * This is only for internal list manipulation where we know
 * the prev/next entries already!
 * */
static inline void
__list_del(list_entry_t *prev, list_entry_t *next) {
    prev->next = next;
  102b10:	8b 45 c4             	mov    -0x3c(%ebp),%eax
  102b13:	8b 55 c0             	mov    -0x40(%ebp),%edx
  102b16:	89 50 04             	mov    %edx,0x4(%eax)
    next->prev = prev;
  102b19:	8b 45 c0             	mov    -0x40(%ebp),%eax
  102b1c:	8b 55 c4             	mov    -0x3c(%ebp),%edx
  102b1f:	89 10                	mov    %edx,(%eax)
                 list_del(le);
                 le = temp;
  102b21:	8b 45 e4             	mov    -0x1c(%ebp),%eax
  102b24:	89 45 f4             	mov    %eax,-0xc(%ebp)
    list_entry_t *temp;
    while ((le = list_next(le)) != &free_list) {
        page = le2page(le, page_link);
        if (page->property >= n) {
            int i;
            for (i=0; i<n; i++) {
  102b27:	83 45 f0 01          	addl   $0x1,-0x10(%ebp)
  102b2b:	8b 45 f0             	mov    -0x10(%ebp),%eax
  102b2e:	3b 45 08             	cmp    0x8(%ebp),%eax
  102b31:	0f 82 78 ff ff ff    	jb     102aaf <default_alloc_pages+0x78>
                 ClearPageProperty(tempp);
                 temp = list_next(le);
                 list_del(le);
                 le = temp;
            }
            size_t rest = page->property - n;
  102b37:	8b 45 ec             	mov    -0x14(%ebp),%eax
  102b3a:	8b 40 08             	mov    0x8(%eax),%eax
  102b3d:	2b 45 08             	sub    0x8(%ebp),%eax
  102b40:	89 45 e0             	mov    %eax,-0x20(%ebp)
            if (rest > 0) {
  102b43:	83 7d e0 00          	cmpl   $0x0,-0x20(%ebp)
  102b47:	74 0c                	je     102b55 <default_alloc_pages+0x11e>
                (le2page(le, page_link))->property = rest;
  102b49:	8b 45 f4             	mov    -0xc(%ebp),%eax
  102b4c:	8d 50 f4             	lea    -0xc(%eax),%edx
  102b4f:	8b 45 e0             	mov    -0x20(%ebp),%eax
  102b52:	89 42 08             	mov    %eax,0x8(%edx)
            }
            nr_free -= n;
  102b55:	a1 58 89 11 00       	mov    0x118958,%eax
  102b5a:	2b 45 08             	sub    0x8(%ebp),%eax
  102b5d:	a3 58 89 11 00       	mov    %eax,0x118958
            return page;
  102b62:	8b 45 ec             	mov    -0x14(%ebp),%eax
  102b65:	eb 21                	jmp    102b88 <default_alloc_pages+0x151>
  102b67:	8b 45 f4             	mov    -0xc(%ebp),%eax
  102b6a:	89 45 bc             	mov    %eax,-0x44(%ebp)
 * list_next - get the next entry
 * @listelm:    the list head
 **/
static inline list_entry_t *
list_next(list_entry_t *listelm) {
    return listelm->next;
  102b6d:	8b 45 bc             	mov    -0x44(%ebp),%eax
  102b70:	8b 40 04             	mov    0x4(%eax),%eax
        return NULL;
    }
    struct Page *page = NULL;
    list_entry_t *le = &free_list;
    list_entry_t *temp;
    while ((le = list_next(le)) != &free_list) {
  102b73:	89 45 f4             	mov    %eax,-0xc(%ebp)
  102b76:	81 7d f4 50 89 11 00 	cmpl   $0x118950,-0xc(%ebp)
  102b7d:	0f 85 0b ff ff ff    	jne    102a8e <default_alloc_pages+0x57>
            }
            nr_free -= n;
            return page;
        }
    }
    return NULL;
  102b83:	b8 00 00 00 00       	mov    $0x0,%eax
}
  102b88:	c9                   	leave  
  102b89:	c3                   	ret    

00102b8a <default_free_pages>:

static void
default_free_pages(struct Page *base, size_t n) {
  102b8a:	55                   	push   %ebp
  102b8b:	89 e5                	mov    %esp,%ebp
  102b8d:	83 ec 58             	sub    $0x58,%esp
    assert(n > 0);
  102b90:	83 7d 0c 00          	cmpl   $0x0,0xc(%ebp)
  102b94:	75 24                	jne    102bba <default_free_pages+0x30>
  102b96:	c7 44 24 0c f0 65 10 	movl   $0x1065f0,0xc(%esp)
  102b9d:	00 
  102b9e:	c7 44 24 08 f6 65 10 	movl   $0x1065f6,0x8(%esp)
  102ba5:	00 
  102ba6:	c7 44 24 04 76 00 00 	movl   $0x76,0x4(%esp)
  102bad:	00 
  102bae:	c7 04 24 0b 66 10 00 	movl   $0x10660b,(%esp)
  102bb5:	e8 0c e1 ff ff       	call   100cc6 <__panic>
    struct Page *p = base;
  102bba:	8b 45 08             	mov    0x8(%ebp),%eax
  102bbd:	89 45 f4             	mov    %eax,-0xc(%ebp)

    list_entry_t *le = &free_list;
  102bc0:	c7 45 f0 50 89 11 00 	movl   $0x118950,-0x10(%ebp)
    while ((le=list_next(le)) != &free_list) {
  102bc7:	eb 0d                	jmp    102bd6 <default_free_pages+0x4c>
        if ((le2page(le, page_link)) > base)
  102bc9:	8b 45 f0             	mov    -0x10(%ebp),%eax
  102bcc:	83 e8 0c             	sub    $0xc,%eax
  102bcf:	3b 45 08             	cmp    0x8(%ebp),%eax
  102bd2:	76 02                	jbe    102bd6 <default_free_pages+0x4c>
            break;
  102bd4:	eb 18                	jmp    102bee <default_free_pages+0x64>
  102bd6:	8b 45 f0             	mov    -0x10(%ebp),%eax
  102bd9:	89 45 ec             	mov    %eax,-0x14(%ebp)
  102bdc:	8b 45 ec             	mov    -0x14(%ebp),%eax
  102bdf:	8b 40 04             	mov    0x4(%eax),%eax
default_free_pages(struct Page *base, size_t n) {
    assert(n > 0);
    struct Page *p = base;

    list_entry_t *le = &free_list;
    while ((le=list_next(le)) != &free_list) {
  102be2:	89 45 f0             	mov    %eax,-0x10(%ebp)
  102be5:	81 7d f0 50 89 11 00 	cmpl   $0x118950,-0x10(%ebp)
  102bec:	75 db                	jne    102bc9 <default_free_pages+0x3f>
        if ((le2page(le, page_link)) > base)
            break;
    }
    for (p = base; p<base+n; p++) {
  102bee:	8b 45 08             	mov    0x8(%ebp),%eax
  102bf1:	89 45 f4             	mov    %eax,-0xc(%ebp)
  102bf4:	e9 9a 00 00 00       	jmp    102c93 <default_free_pages+0x109>
        set_page_ref(p, 0);
  102bf9:	c7 44 24 04 00 00 00 	movl   $0x0,0x4(%esp)
  102c00:	00 
  102c01:	8b 45 f4             	mov    -0xc(%ebp),%eax
  102c04:	89 04 24             	mov    %eax,(%esp)
  102c07:	e8 a2 fc ff ff       	call   1028ae <set_page_ref>
        ClearPageReserved(p);
  102c0c:	8b 45 f4             	mov    -0xc(%ebp),%eax
  102c0f:	83 c0 04             	add    $0x4,%eax
  102c12:	c7 45 e8 00 00 00 00 	movl   $0x0,-0x18(%ebp)
  102c19:	89 45 e4             	mov    %eax,-0x1c(%ebp)
  102c1c:	8b 45 e4             	mov    -0x1c(%ebp),%eax
  102c1f:	8b 55 e8             	mov    -0x18(%ebp),%edx
  102c22:	0f b3 10             	btr    %edx,(%eax)
        SetPageProperty(p);
  102c25:	8b 45 f4             	mov    -0xc(%ebp),%eax
  102c28:	83 c0 04             	add    $0x4,%eax
  102c2b:	c7 45 e0 01 00 00 00 	movl   $0x1,-0x20(%ebp)
  102c32:	89 45 dc             	mov    %eax,-0x24(%ebp)
 * Note that @nr may be almost arbitrarily large; this function is not
 * restricted to acting on a single-word quantity.
 * */
static inline void
set_bit(int nr, volatile void *addr) {
    asm volatile ("btsl %1, %0" :"=m" (*(volatile long *)addr) : "Ir" (nr));
  102c35:	8b 45 dc             	mov    -0x24(%ebp),%eax
  102c38:	8b 55 e0             	mov    -0x20(%ebp),%edx
  102c3b:	0f ab 10             	bts    %edx,(%eax)
        p->property = 0;
  102c3e:	8b 45 f4             	mov    -0xc(%ebp),%eax
  102c41:	c7 40 08 00 00 00 00 	movl   $0x0,0x8(%eax)
        list_add_before(le, &(p->page_link));
  102c48:	8b 45 f4             	mov    -0xc(%ebp),%eax
  102c4b:	8d 50 0c             	lea    0xc(%eax),%edx
  102c4e:	8b 45 f0             	mov    -0x10(%ebp),%eax
  102c51:	89 45 d8             	mov    %eax,-0x28(%ebp)
  102c54:	89 55 d4             	mov    %edx,-0x2c(%ebp)
 * Insert the new element @elm *before* the element @listelm which
 * is already in the list.
 * */
static inline void
list_add_before(list_entry_t *listelm, list_entry_t *elm) {
    __list_add(elm, listelm->prev, listelm);
  102c57:	8b 45 d8             	mov    -0x28(%ebp),%eax
  102c5a:	8b 00                	mov    (%eax),%eax
  102c5c:	8b 55 d4             	mov    -0x2c(%ebp),%edx
  102c5f:	89 55 d0             	mov    %edx,-0x30(%ebp)
  102c62:	89 45 cc             	mov    %eax,-0x34(%ebp)
  102c65:	8b 45 d8             	mov    -0x28(%ebp),%eax
  102c68:	89 45 c8             	mov    %eax,-0x38(%ebp)
 * This is only for internal list manipulation where we know
 * the prev/next entries already!
 * */
static inline void
__list_add(list_entry_t *elm, list_entry_t *prev, list_entry_t *next) {
    prev->next = next->prev = elm;
  102c6b:	8b 45 c8             	mov    -0x38(%ebp),%eax
  102c6e:	8b 55 d0             	mov    -0x30(%ebp),%edx
  102c71:	89 10                	mov    %edx,(%eax)
  102c73:	8b 45 c8             	mov    -0x38(%ebp),%eax
  102c76:	8b 10                	mov    (%eax),%edx
  102c78:	8b 45 cc             	mov    -0x34(%ebp),%eax
  102c7b:	89 50 04             	mov    %edx,0x4(%eax)
    elm->next = next;
  102c7e:	8b 45 d0             	mov    -0x30(%ebp),%eax
  102c81:	8b 55 c8             	mov    -0x38(%ebp),%edx
  102c84:	89 50 04             	mov    %edx,0x4(%eax)
    elm->prev = prev;
  102c87:	8b 45 d0             	mov    -0x30(%ebp),%eax
  102c8a:	8b 55 cc             	mov    -0x34(%ebp),%edx
  102c8d:	89 10                	mov    %edx,(%eax)
    list_entry_t *le = &free_list;
    while ((le=list_next(le)) != &free_list) {
        if ((le2page(le, page_link)) > base)
            break;
    }
    for (p = base; p<base+n; p++) {
  102c8f:	83 45 f4 14          	addl   $0x14,-0xc(%ebp)
  102c93:	8b 55 0c             	mov    0xc(%ebp),%edx
  102c96:	89 d0                	mov    %edx,%eax
  102c98:	c1 e0 02             	shl    $0x2,%eax
  102c9b:	01 d0                	add    %edx,%eax
  102c9d:	c1 e0 02             	shl    $0x2,%eax
  102ca0:	89 c2                	mov    %eax,%edx
  102ca2:	8b 45 08             	mov    0x8(%ebp),%eax
  102ca5:	01 d0                	add    %edx,%eax
  102ca7:	3b 45 f4             	cmp    -0xc(%ebp),%eax
  102caa:	0f 87 49 ff ff ff    	ja     102bf9 <default_free_pages+0x6f>
        ClearPageReserved(p);
        SetPageProperty(p);
        p->property = 0;
        list_add_before(le, &(p->page_link));
    }
    base->property = n;
  102cb0:	8b 45 08             	mov    0x8(%ebp),%eax
  102cb3:	8b 55 0c             	mov    0xc(%ebp),%edx
  102cb6:	89 50 08             	mov    %edx,0x8(%eax)
    p = le2page(le, page_link);
  102cb9:	8b 45 f0             	mov    -0x10(%ebp),%eax
  102cbc:	83 e8 0c             	sub    $0xc,%eax
  102cbf:	89 45 f4             	mov    %eax,-0xc(%ebp)
    if (base + n == p) {
  102cc2:	8b 55 0c             	mov    0xc(%ebp),%edx
  102cc5:	89 d0                	mov    %edx,%eax
  102cc7:	c1 e0 02             	shl    $0x2,%eax
  102cca:	01 d0                	add    %edx,%eax
  102ccc:	c1 e0 02             	shl    $0x2,%eax
  102ccf:	89 c2                	mov    %eax,%edx
  102cd1:	8b 45 08             	mov    0x8(%ebp),%eax
  102cd4:	01 d0                	add    %edx,%eax
  102cd6:	3b 45 f4             	cmp    -0xc(%ebp),%eax
  102cd9:	75 1e                	jne    102cf9 <default_free_pages+0x16f>
        base->property += p->property;
  102cdb:	8b 45 08             	mov    0x8(%ebp),%eax
  102cde:	8b 50 08             	mov    0x8(%eax),%edx
  102ce1:	8b 45 f4             	mov    -0xc(%ebp),%eax
  102ce4:	8b 40 08             	mov    0x8(%eax),%eax
  102ce7:	01 c2                	add    %eax,%edx
  102ce9:	8b 45 08             	mov    0x8(%ebp),%eax
  102cec:	89 50 08             	mov    %edx,0x8(%eax)
        p->property = 0;
  102cef:	8b 45 f4             	mov    -0xc(%ebp),%eax
  102cf2:	c7 40 08 00 00 00 00 	movl   $0x0,0x8(%eax)
    }
    le = list_prev(&(base->page_link));
  102cf9:	8b 45 08             	mov    0x8(%ebp),%eax
  102cfc:	83 c0 0c             	add    $0xc,%eax
  102cff:	89 45 c4             	mov    %eax,-0x3c(%ebp)
 * list_prev - get the previous entry
 * @listelm:    the list head
 **/
static inline list_entry_t *
list_prev(list_entry_t *listelm) {
    return listelm->prev;
  102d02:	8b 45 c4             	mov    -0x3c(%ebp),%eax
  102d05:	8b 00                	mov    (%eax),%eax
  102d07:	89 45 f0             	mov    %eax,-0x10(%ebp)
    if ((le != &free_list) && (le2page(le, page_link)+1==base)) {
  102d0a:	81 7d f0 50 89 11 00 	cmpl   $0x118950,-0x10(%ebp)
  102d11:	74 57                	je     102d6a <default_free_pages+0x1e0>
  102d13:	8b 45 f0             	mov    -0x10(%ebp),%eax
  102d16:	83 c0 08             	add    $0x8,%eax
  102d19:	3b 45 08             	cmp    0x8(%ebp),%eax
  102d1c:	75 4c                	jne    102d6a <default_free_pages+0x1e0>
        while (le != &free_list) {
  102d1e:	eb 41                	jmp    102d61 <default_free_pages+0x1d7>
            p = le2page(le, page_link);
  102d20:	8b 45 f0             	mov    -0x10(%ebp),%eax
  102d23:	83 e8 0c             	sub    $0xc,%eax
  102d26:	89 45 f4             	mov    %eax,-0xc(%ebp)
            if (p->property > 0) {
  102d29:	8b 45 f4             	mov    -0xc(%ebp),%eax
  102d2c:	8b 40 08             	mov    0x8(%eax),%eax
  102d2f:	85 c0                	test   %eax,%eax
  102d31:	74 20                	je     102d53 <default_free_pages+0x1c9>
                p->property += base->property;
  102d33:	8b 45 f4             	mov    -0xc(%ebp),%eax
  102d36:	8b 50 08             	mov    0x8(%eax),%edx
  102d39:	8b 45 08             	mov    0x8(%ebp),%eax
  102d3c:	8b 40 08             	mov    0x8(%eax),%eax
  102d3f:	01 c2                	add    %eax,%edx
  102d41:	8b 45 f4             	mov    -0xc(%ebp),%eax
  102d44:	89 50 08             	mov    %edx,0x8(%eax)
                base->property = 0;
  102d47:	8b 45 08             	mov    0x8(%ebp),%eax
  102d4a:	c7 40 08 00 00 00 00 	movl   $0x0,0x8(%eax)
                break;
  102d51:	eb 17                	jmp    102d6a <default_free_pages+0x1e0>
  102d53:	8b 45 f0             	mov    -0x10(%ebp),%eax
  102d56:	89 45 c0             	mov    %eax,-0x40(%ebp)
  102d59:	8b 45 c0             	mov    -0x40(%ebp),%eax
  102d5c:	8b 00                	mov    (%eax),%eax
            }
            le = list_prev(le);
  102d5e:	89 45 f0             	mov    %eax,-0x10(%ebp)
        base->property += p->property;
        p->property = 0;
    }
    le = list_prev(&(base->page_link));
    if ((le != &free_list) && (le2page(le, page_link)+1==base)) {
        while (le != &free_list) {
  102d61:	81 7d f0 50 89 11 00 	cmpl   $0x118950,-0x10(%ebp)
  102d68:	75 b6                	jne    102d20 <default_free_pages+0x196>
                break;
            }
